S'^0\\.0 0\\.0 0\\.0 RG$\n^\\[ 1\\.0 0\\.0 0\\.0 1\\.0 0\\.0 0\\.0 \\] defaultmatrix matrix concatmatrix setmatrix$\n^1\\.0 w$\n^2 J$\n^0 j$\n^10\\.0 M$\n^\\[ \\] 0\\.0 d$\n^1\\.0 1\\.0 1\\.0 RG$\n^0\\.0 0\\.0 \\d+\\.0 \\d+\\.0 rf$\n^0\\.0 0\\.0 0\\.0 RG$\n^q$\n^0 0 \\d+ \\d+ rc$\n^q$'
p1
.S'%!PS-Adobe-3.0 EPSF-3.0\n%%BoundingBox: 20 168 575 674\n%%Creator: FreeHEP Graphics2D Driver\n%%Producer: org.freehep.graphicsio.ps.PSGraphics2D Revision: 1.20 \n%%For: \n%%Title: \n%%CreationDate: Tuesday, April 11, 2006 6:58:05 PM BRT\n%%LanguageLevel: 3\n%%EndComments\n%%BeginProlog\n100 dict dup begin\n\n%\n% File: org/freehep/graphicsio.ps/PSProlog.txt\n% Author: Charles Loomis\n%\n\n% Redefinitions which save some space in the output file.  These are also\n% the same as the PDF operators.\n/q {gsave} def\n/Q {grestore} def\n\n/n {newpath} def\n/m {moveto} def\n/l {lineto} def\n/c {curveto} def\n/h {closepath} def\n\n/re {4 -2 roll moveto\n     dup 0 exch rlineto exch 0 rlineto\n     neg 0 exch rlineto closepath} def\n\n/f {fill} def\n/f* {eofill} def\n/F {gsave vg&FC fill grestore} def\n/F* {gsave vg&FC eofill grestore} def\n\n/s {closepath stroke} def\n/S {stroke} def\n\n/b {closepath gsave vg&FC fill grestore\n    gsave stroke grestore newpath} def\n/B {gsave vg&FC fill grestore gsave stroke grestore newpath} def\n/b* {closepath gsave vg&FC eofill grestore\n    gsave stroke grestore newpath} def\n/B* {gsave vg&FC eofill grestore gsave stroke grestore newpath} def\n\n/g {1 array astore /vg&fcolor exch def} def\n/G {setgray} def\n/k {4 array astore /vg&fcolor exch def} def\n/K {setcmykcolor} def\n/rg {3 array astore /vg&fcolor exch def} def\n/RG {setrgbcolor} def\n\n% Initialize the fill color.\n0 0 0 rg\n\n/vg&FC {mark vg&fcolor aload pop\n        counttomark 1 eq {G} if\n        counttomark 3 eq {RG} if\n        counttomark 4 eq {K} if\n        cleartomark } def\n\n/vg&DFC {/vg&fcolor exch def} def\n\n/vg&C {mark exch aload pop\n       counttomark 1 eq {G} if\n       counttomark 3 eq {RG} if\n       counttomark 4 eq {K} if\n       cleartomark } def\n\n/w {setlinewidth} def\n/j {setlinejoin} def\n/J {setlinecap} def\n/M {setmiterlimit} def\n/d {setdash} def\n/i {setflat} def\n\n/W {clip} def\n/W* {eoclip} def\n\n% Setup the default graphics state.\n% (black; 1 pt. linewidth; miter join; butt-ends; solid)\n/defaultGraphicsState {0 g 1 w 0 j 0 J [] 0 d} def\n\n% Emulation of the rectangle operators for PostScript implementations\n% which do not implement all Level 2 features.  This is an INCOMPLETE\n% emulation; only the "x y width height rect..." form is emulated.\n/*rf {gsave newpath re fill grestore} def\n/*rs {gsave newpath re stroke grestore} def\n/*rc {newpath re clip} def\n/rf  /rectfill where {pop /rectfill}{/*rf} ifelse load def\n/rs  /rectstroke where {pop /rectstroke}{/*rs} ifelse load def\n/rc  /rectclip where {pop /rectclip}{/*rc} ifelse load def\n\n% Emulation of the selectfont operator.  This includes a 20% increase in\n% the fontsize which is necessary to get sizes similar to the Java fonts.\n/*sf {exch findfont exch\n      dup type /arraytype eq {makefont}{scalefont} ifelse setfont} bind def\n/sf /selectfont where {pop {1.2 mul selectfont}}{{1.2 mul *sf}} ifelse def\n\n% Special version of stroke which allows the dash pattern to continue\n% across path segments.  (This may be needed for PostScript although\n% modern printers seem to do this correctly.)\n/vg&stroke {\n  currentdash pop length 0 eq\n  {stroke}\n  {\n    currentdash /vg&doffset exch def pop\n    flattenpath\n    {m vg&resetdash}\n    {2 copy\n     currentpoint\n     3 -1 roll sub dup mul\n     3 1 roll sub dup mul\n     add sqrt\n     3 1 roll l\n     currentdash 3 -1 roll add setdash}\n     {}\n     {h vg&resetdash}\n     pathforall\n     stroke\n     vg&resetdash\n  } ifelse\n} def\n/vg&resetdash {currentdash pop vg&doffset setdash} def\n\n% Initialize variables for safety.\n/delta 0 def\n/xv 0 def  /yv 0 def  /width 0 def  /height 0 def\n\n% Initialize to portrait INTERNATIONAL (Letter-height, A4-width) page.\n/pw 595 def  /ph 791  def  /po true def /ftp false def\n\n% Initialize margins to 20 points.\n/ml 20 def  /mr 20 def  /mt 20 def  /mb 20 def\n\n% Temporary matrices.\n/smatrix 0 def  /nmatrix 0 def\n\n% set page size (usage: <page width><page height> setpagesize)\n/setpagesize {/ph exch def /pw exch def} def\n\n% set page orientation (usage: portrait or landscape)\n/portrait {/po true def} def\n/landscape {/po false def} def\n\n% force natural size for image (usage: naturalsize)\n/naturalsize {/ftp false def} def\n\n% resize image to fill page (usage: fittopage)\n/fittopage {/ftp true def} def\n\n% set margins of the page (usage: <left><bottom><top><right> setmargins)\n/setmargins {/mr exch def /mt exch def /mb exch def /ml exch def} def\n\n% set the graphic\'s size (usage: <width><height> setsize)\n/setsize {/gh exch def /gw exch def} def\n\n% set the graphic\'s origin (usage: <x0><y0> setorigin)\n/setorigin {/gy exch def /gx exch def} def\n\n% calculate image center\n/imagecenter {pw ml sub mr sub 2 div ml add\n              ph mt sub mb sub 2 div mb add} def\n\n% calculate the necessary scaling\n/imagescale {po {gw}{gh} ifelse pw ml sub mr sub div\n             po {gh}{gw} ifelse ph mt sub mb sub div\n             2 copy lt {exch} if pop\n             ftp not {1 2 copy lt {exch} if pop} if\n             1 exch div /sfactor exch def\n             /gw gw sfactor mul def /gh gh sfactor mul def} def\n\n% calculate image origin\n/imageorigin {pw ml sub mr sub 2 div ml add\n              po {gw}{gh} ifelse 2 div sub\n              ph mt sub mb sub 2 div mb add\n              po {gh}{gw} ifelse 2 div po {add}{sub} ifelse} def\n\n% calculate the clipping origin\n/cliporigin  {pw ml sub mr sub 2 div ml add\n              po {gw}{gh} ifelse 2 div sub floor\n              ph mt sub mb sub 2 div mb add\n              po {gh}{gw} ifelse 2 div sub floor} def\n\n% Set the clipping region to the bounding box.\n/cliptobounds {cliporigin po {gw}{gh} ifelse 1 add\n                          po {gh}{gw} ifelse 1 add rc} def\n\n% set the base transformation matrix (usage: setbasematrix)\n/setbasematrix {imageorigin translate\n                po {0}{90} ifelse rotate\n                sfactor sfactor neg scale\n                /defaultmatrix matrix currentmatrix def} def\n\n% The lower-right bias in drawing 1 pt. wide lines.\n/bias  {q 0.5 0.5 translate} def\n/unbias {Q} def\n\n% Draw a line. (x0 y0 x1 y1 line)\n/L {bias n m l S unbias} def\n\n% Polyline primitive.\n/polyline  {n m 1 exch 1 exch\n           {pop currentfile token pop currentfile token pop l} for\n           } def\n\n% Draw a polyline (n x0 y0 OPL x1 y1 x2 y2 ... ... xn yn)\n/OPL {bias polyline S unbias} def\n\n% Draw a closed polyline (n x0 y0 CPL x1 y1 x2 y2 ... ... xn yn)\n/CPL {bias polyline s unbias} def\n\n% Draw a filled polyline (n x0 y0 FPL x1 y1 x2 y2 ... ... xn yn)\n/FPL {polyline h f*} def\n\n% Draw an oval. (x y w h OVL)\n/OVL {matrix currentmatrix /smatrix exch def\n      /height exch def /width exch def\n      /yv exch def /xv exch def\n      width 2 div xv add height 2 div yv add translate\n      width currentlinewidth sub 2 div\n      height currentlinewidth sub 2 div neg\n      scale n 0 0 1 5 -2 roll arc\n      smatrix setmatrix S} def\n\n% Draw a filled oval. (x y w h FOVL)\n/FOVL {matrix currentmatrix /smatrix exch def\n      /height exch def /width exch def\n      /yv exch def /xv exch def\n      width 2 div xv add height 2 div yv add translate\n      width 2 div\n      height 2 div neg\n      scale n 0 0 m 0 0 1 5 -2 roll arc\n      h smatrix setmatrix f} def\n\n% Draw a rounded rectangle. (x y w h arcwidth archeight RREC)\n/RREC {matrix currentmatrix /smatrix exch def\n      2 div /ah exch def\n      2 div /aw exch def\n      /height exch def /width exch def\n      /yv exch def /xv exch def\n      aw ah scale matrix\n      currentmatrix /nmatrix exch def\n      smatrix setmatrix\n      n xv width add aw sub yv m\n      nmatrix setmatrix\n      currentpoint exch 1 add exch\n      currentpoint 1 add exch 1 add exch\n      1 arct smatrix setmatrix\n      xv width add yv height add ah sub l\n      nmatrix setmatrix\n      currentpoint 1 add\n      currentpoint exch 1 sub exch 1 add\n      1 arct smatrix setmatrix\n      xv aw add yv height add l\n      nmatrix setmatrix\n      currentpoint exch 1 sub exch\n      currentpoint exch 1 sub exch 1 sub\n      1 arct smatrix setmatrix\n      xv yv ah add l\n      nmatrix setmatrix\n      currentpoint 1 sub\n      currentpoint exch 1 add exch 1 sub\n      1 arct smatrix setmatrix\n      s} def\n\n% Draw a filled rounded rectangle. (x y w h arcwidth archeight FRREC)\n/FRREC{matrix currentmatrix /smatrix exch def\n      2 div /ah exch def\n      2 div /aw exch def\n      /height exch def /width exch def\n      /yv exch def /xv exch def\n      aw ah scale matrix\n      currentmatrix /nmatrix exch def\n      smatrix setmatrix\n      n xv width add aw sub yv m\n      nmatrix setmatrix\n      currentpoint exch 1 add exch\n      currentpoint 1 add exch 1 add exch\n      1 arct smatrix setmatrix\n      xv width add yv height add ah sub l\n      nmatrix setmatrix\n      currentpoint 1 add\n      currentpoint exch 1 sub exch 1 add\n      1 arct smatrix setmatrix\n      xv aw add yv height add l\n      nmatrix setmatrix\n      currentpoint exch 1 sub exch\n      currentpoint exch 1 sub exch 1 sub\n      1 arct smatrix setmatrix\n      xv yv ah add l\n      nmatrix setmatrix\n      currentpoint 1 sub\n      currentpoint exch 1 add exch 1 sub\n      1 arct smatrix setmatrix\n      h f} def\n\n% Draw a string.  (string x y STR)\n/STR {q m 1 -1 scale recshow Q} def\n\n% Define basic plot symbols.\n/xys   {/siz exch def /yv exch def /xv exch def} def\n/hline {xys n xv siz 2. div sub yv m siz 0 rlineto S} def\n/vline {xys n xv yv siz 2. div sub m 0 siz rlineto S} def\n/plus  {xys n xv yv siz 2. div sub m 0 siz rlineto\n                    xv siz 2. div sub yv m siz 0 rlineto S} def\n/dot   {n 2. div 0 360 arc s} def\n/fdot  {n 2. div 0 360 arc h f} def\n/box   {xys n xv siz 2 sqrt div 2 div sub yv siz 2 sqrt div 2 div sub\n                    siz 2 sqrt div dup rs} def\n/fbox  {xys n xv siz 2 sqrt div 2 div sub yv siz 2 sqrt div 2 div sub\n                       siz 2 sqrt div dup rf} def\n/tridn{xys n xv yv siz 3 sqrt div add m\n                       siz 2. div neg 3 sqrt 2. div siz mul neg rlineto\n                       siz 0 rlineto s} def\n/ftridn{xys n xv yv siz 3 sqrt div add m\n                       siz 2. div neg 3 sqrt 2. div siz mul neg rlineto\n                       siz 0 rlineto h f} def\n\n% Symbols defined in terms of the others.\n/star     {3 copy cross plus} def\n/cross    {xys q xv yv translate 45 rotate 0 0 siz plus Q} def\n/diamond  {xys q xv yv translate 45 rotate 0 0 siz box Q} def\n/fdiamond {xys q xv yv translate 45 rotate 0 0 siz fbox Q} def\n/triup    {xys q xv yv translate 180 rotate 0 0 siz tridn Q} def\n/ftriup   {xys q xv yv translate 180 rotate 0 0 siz ftridn Q} def\n\n% Define the composite fonts used to print Unicode strings.\n% Undefine particular values in an encoding array.\n/vg&undef { {exch dup 3 -1 roll /.notdef put} forall } def\n/vg&redef { {3 -1 roll dup 4 2 roll put} forall } def\n\n% usage: key encoding basefontname vg&newbasefont font\n/vg&newbasefont {\nfindfont dup length dict copy\n  begin\n    currentdict /FID undef\n    /Encoding exch def\n    dup /FontName exch def\n    currentdict\n  end\ndefinefont\n} def\n\n% usage: key encoding basefontname vg&newskewedbasefont font\n/vg&newskewedbasefont {\nfindfont dup length dict copy\n  begin\n    currentdict /FID undef\n    /Encoding exch def\n    dup /FontName exch def\n    exch FontMatrix exch matrix concatmatrix /FontMatrix exch def\n    currentdict\n  end\ndefinefont\n} def\n\n% usage: basekey suffix vg&nconcat name\n/vg&nconcat {\n  2 {dup length string cvs exch} repeat\n  dup length 3 -1 roll dup length 3 -1 roll add string\n  dup 0 4 -1 roll dup length 5 1 roll putinterval\n  dup 4 -2 roll exch putinterval cvn\n} def\n\n%usage: fontname vg&skewmatrix matrix\n/vg&skewmatrix {\nfindfont dup /FontInfo known\n  {\n    /FontInfo get dup /ItalicAngle known\n    {\n      [ 1 0 4 -1 roll /ItalicAngle get neg dup sin exch cos div 1 0 0 ]\n    }\n    {pop matrix} ifelse\n  }\n  {pop matrix} ifelse\n} def\n\n% usage: newfontname basefontname vg&newcompositefont --\n/vg&newcompositefont {\n/vg&fstyle exch def\n/vg&bfont exch def\n/vg&fname exch def\n<<\n/FontStyleBits vg&fstyle\n/FontType 0\n/FontMatrix matrix\n/FontName vg&fname\n/FMapType 2\n/Encoding [ 0 1 255 {pop 6} for ]\n          dup 16#00 0 put % Latin\n          dup 16#03 1 put % Greek\n          dup 16#20 2 put % Punctuation\n          dup 16#21 3 put % Arrows\n          dup 16#22 4 put % MathOps\n          dup 16#27 5 put % Dingbats\n\n/FDepVector [\nvg&bfont /-UC-Latin vg&nconcat UCLatinEncoding\nvg&bfont vg&newbasefont\n\nvg&bfont vg&skewmatrix\nvg&bfont /-UC-Greek vg&nconcat UCGreekEncoding\n/Symbol vg&newskewedbasefont\n\nvg&bfont /-UC-Punctuation vg&nconcat UCPunctuationEncoding\nvg&bfont vg&newbasefont\n\n/Arrows-UC findfont\n/MathOps-UC findfont\n/Dingbats-UC findfont\n/Undefined-UC findfont ]\n>>\nvg&fname exch definefont pop\n} def\n\n% Null encoding vector (all elements set to .notdef)\n/NullEncoding [ 256 {/.notdef} repeat ] def\n\n% Unicode Latin encoding (unicode codes \\u0000-\\u00ff)\n/UCLatinEncoding\n  ISOLatin1Encoding dup length array copy\n  dup 16#60 /grave put\n  [ 16#90 16#91 16#92 16#93 16#94 16#95 16#96\n    16#97 16#98 16#9a 16#9b 16#9d 16#9e 16#9f\n  ] vg&undef\n  def\n\n% Unicode Greek encoding (unicode codes \\u0370-\\u03ff)\n/UCGreekEncoding\n  NullEncoding dup length array copy\n  << 16#91 /Alpha    16#92 /Beta      16#93 /Gamma    16#94 /Delta\n     16#95 /Epsilon  16#96 /Zeta      16#97 /Eta      16#98 /Theta\n     16#99 /Iota     16#9a /Kappa     16#9b /Lambda   16#9c /Mu\n     16#9d /Nu       16#9e /Xi        16#9f /Omicron  16#a0 /Pi\n     16#a1 /Rho      16#a3 /Sigma     16#a4 /Tau      16#a5 /Upsilon\n     16#a6 /Phi      16#a7 /Chi       16#a8 /Psi      16#a9 /Omega\n     16#b1 /alpha    16#b2 /beta      16#b3 /gamma    16#b4 /delta\n     16#b5 /epsilon  16#b6 /zeta      16#b7 /eta      16#b8 /theta\n     16#b9 /iota     16#ba /kappa     16#bb /lambda   16#bc /mu\n     16#bd /nu       16#be /xi        16#bf /omicron  16#c0 /pi\n     16#c1 /rho      16#c2 /sigma1    16#c3 /sigma    16#c4 /tau\n     16#c5 /upsilon  16#c6 /phi1      16#c7 /chi      16#c8 /psi\n     16#c9 /omega    16#7e /semicolon 16#87 /dotmath  16#d1 /theta1\n     16#d2 /Upsilon1 16#d5 /phi       16#d6 /omega1\n  >> vg&redef\n  def\n\n% Unicode punctuation encoding (unicode codes \\u2000-\\u206f)\n/UCPunctuationEncoding\n  NullEncoding dup length array copy\n  << 16#10 /hyphen          16#11 /hyphen              16#12 /endash\n     16#13 /emdash          16#18 /quoteleft           16#19 /quoteright\n     16#1a /quotesinglbase  16#1b /quotesingle         16#1c /quotedblleft\n     16#1d /quotedblright   16#1e /quotedblbase        16#1f /quotedbl\n     16#20 /dagger          16#21 /daggerdbl           16#22 /bullet\n     16#24 /period          16#26 /ellipsis            16#27 /periodcentered\n     16#30 /perthousand     16#44 /fraction\n     16#70 /zerosuperior    16#74 /foursuperior        16#75 /fivesuperior\n     16#76 /sixsuperior     16#77 /sevensuperior       16#78 /eightsuperior\n     16#79 /ninesuperior    16#7b /hyphensuperior      16#7d /parenleftsuperior\n     16#7e /parenrightsuperior\n     16#80 /zeroinferior    16#84 /fourinferior        16#85 /fiveinferior\n     16#81 /oneinferior     16#82 /twoinferior         16#83 /threeinferior\n     16#86 /sixinferior     16#87 /seveninferior       16#88 /eightinferior\n     16#89 /nineinferior    16#8b /hypheninferior      16#8d /parenleftinferior\n     16#8e /parenrightinferior\n  >> vg&redef\n  def\n\n% Unicode mathematical operators encoding (unicode codes \\u2200-\\u22ff)\n/UCMathOpsEncoding\n  NullEncoding dup length array copy\n  << 16#00 /universal       16#02 /partialdiff         16#03 /existential\n     16#05 /emptyset        16#06 /Delta               16#07 /gradient\n     16#08 /element         16#09 /notelement          16#0b /suchthat\n     16#0f /product         16#11 /summation           16#12 /minus\n     16#15 /fraction        16#17 /asteriskmath        16#19 /bullet\n     16#1a /radical         16#1d /proportional        16#1e /infinity\n     16#20 /angle           16#23 /bar                 16#27 /logicaland\n     16#28 /logicalor       16#29 /intersection        16#2a /union\n     16#2b /integral        16#34 /therefore           16#36 /colon\n     16#3c /similar         16#45 /congruent           16#48 /approxequal\n     16#60 /notequal        16#61 /equivalence         16#64 /lessequal\n     16#65 /greaterequal    16#82 /propersubset        16#83 /propersuperset\n     16#86 /reflexsubset    16#87 /reflexsuperset      16#95 /circleplus\n     16#97 /circlemultiply  16#a5 /perpendicular       16#03 /existential\n     16#c0 /logicaland      16#c1 /logicalor           16#c2 /intersection\n     16#c3 /union           16#c4 /diamond             16#c5 /dotmath\n  >> vg&redef\n  def\n\n% Unicode arrows encoding (unicode codes \\u2190-\\u21ff)\n% Also includes those "Letterlike" unicode characters\n% which are available in the symbol font. (unicode codes \\u2100-\\u214f)\n/UCArrowsEncoding\n  NullEncoding dup length array copy\n  << 16#11 /Ifraktur        16#1c /Rfraktur            16#22 /trademarkserif\n     16#35 /aleph\n     16#90 /arrowleft       16#91 /arrowup             16#92 /arrowright\n     16#93 /arrowdown       16#94 /arrowboth           16#d0 /arrowdblleft\n     16#d1 /arrowdblup      16#d2 /arrowdblright       16#d3 /arrowdbldown\n     16#d4 /arrowdblboth\n  >> vg&redef\n  def\n\n/ZapfDingbats findfont /Encoding get\ndup length array copy /UCDingbatsEncoding exch def\n16#20 1 16#7f {\n  dup 16#20 sub exch\n  UCDingbatsEncoding exch get\n  UCDingbatsEncoding 3 1 roll put\n} for\n16#a0 1 16#ff {\n  dup 16#40 sub exch\n  UCDingbatsEncoding exch get\n  UCDingbatsEncoding 3 1 roll put\n} for\nUCDingbatsEncoding [ 16#c0 1 16#ff {} for ] vg&undef\n[ 16#00  16#05 16#0a 16#0b  16#28 16#4c 16#4e  16#53 16#54 16#55  16#57 16#5f\n  16#60  16#68 16#69 16#6a  16#6b 16#6c 16#6d  16#6e 16#6f 16#70  16#71 16#72\n  16#73  16#74 16#75 16#95  16#96 16#97 16#b0  16#bf\n] vg&undef pop\n\n% Define the base fonts which don\'t change.\n/Undefined-UC NullEncoding       /Helvetica    vg&newbasefont pop\n/MathOps-UC   UCMathOpsEncoding  /Symbol       vg&newbasefont pop\n/Arrows-UC    UCArrowsEncoding   /Symbol       vg&newbasefont pop\n/Dingbats-UC  UCDingbatsEncoding /ZapfDingbats vg&newbasefont pop\n\n% Make the SansSerif composite fonts.\n/SansSerif /Helvetica 16#00 vg&newcompositefont\n/SansSerif-Bold /Helvetica-Bold 16#01 vg&newcompositefont\n/SansSerif-Italic /Helvetica-Oblique 16#02 vg&newcompositefont\n/SansSerif-BoldItalic /Helvetica-BoldOblique 16#03 vg&newcompositefont\n\n% Make the Serif composite fonts.\n/Serif /Times-Roman 16#00 vg&newcompositefont\n/Serif-Bold /Times-Bold 16#01 vg&newcompositefont\n/Serif-Italic /Times-Italic 16#02 vg&newcompositefont\n/Serif-BoldItalic /Times-BoldItalic 16#03 vg&newcompositefont\n\n% Make the Monospaced composite fonts.\n/Monospaced /Courier 16#00 vg&newcompositefont\n/Monospaced-Bold /Courier-Bold 16#01 vg&newcompositefont\n/Monospaced-Italic /Courier-Oblique 16#02 vg&newcompositefont\n/Monospaced-BoldItalic /Courier-BoldOblique 16#03 vg&newcompositefont\n\n% Make the Dialog composite fonts.\n/Dialog /Helvetica 16#00 vg&newcompositefont\n/Dialog-Bold /Helvetica-Bold 16#01 vg&newcompositefont\n/Dialog-Italic /Helvetica-Oblique 16#02 vg&newcompositefont\n/Dialog-BoldItalic /Helvetica-BoldOblique 16#03 vg&newcompositefont\n\n% Make the DialogInput composite fonts.\n/DialogInput /Helvetica 16#00 vg&newcompositefont\n/DialogInput-Bold /Helvetica-Bold 16#01 vg&newcompositefont\n/DialogInput-Italic /Helvetica-Oblique 16#02 vg&newcompositefont\n/DialogInput-BoldItalic /Helvetica-BoldOblique 16#03 vg&newcompositefont\n\n% Make the Typewriter composite fonts (JDK 1.1 only).\n/Typewriter /Courier 16#00 vg&newcompositefont\n/Typewriter-Bold /Courier-Bold 16#01 vg&newcompositefont\n/Typewriter-Italic /Courier-Oblique 16#02 vg&newcompositefont\n/Typewriter-BoldItalic /Courier-BoldOblique 16#03 vg&newcompositefont\n\n\n/cfontH {\n dup /fontsize exch def /SansSerif exch sf\n /vg&fontstyles [{cfontH} {cfontHB} {cfontHI} {cfontHBI}] def\n} def\n/cfontHB {\n  dup /fontsize exch def /SansSerif-Bold exch sf\n /vg&fontstyles [{cfontH} {cfontHB} {cfontHI} {cfontHBI}] def\n} def\n/cfontHI {\n dup /fontsize exch def /SansSerif-Italic exch sf\n /vg&fontstyles [{cfontH} {cfontHB} {cfontHI} {cfontHBI}] def\n} def\n/cfontHBI {\n dup /fontsize exch def /SansSerif-BoldItalic exch sf\n /vg&fontstyles [{cfontH} {cfontHB} {cfontHI} {cfontHBI}] def\n} def\n\n/cfontT {\n dup /fontsize exch def /Serif exch sf\n /vg&fontstyles [{cfontT} {cfontTB} {cfontTI} {cfontTBI}] def\n} def\n/cfontTB {\n dup /fontsize exch def /Serif-Bold exch sf\n /vg&fontstyles [{cfontT} {cfontTB} {cfontTI} {cfontTBI}] def\n} def\n/cfontTI {\n dup /fontsize exch def /Serif-Italic exch sf\n /vg&fontstyles [{cfontT} {cfontTB} {cfontTI} {cfontTBI}] def\n} def\n/cfontTBI {\n dup /fontsize exch def /Serif-BoldItalic exch sf\n /vg&fontstyles [{cfontT} {cfontTB} {cfontTI} {cfontTBI}] def\n} def\n\n/cfontC {\n dup /fontsize exch def /Typewriter exch sf\n /vg&fontstyles [{cfontC} {cfontCB} {cfontCI} {cfontCBI}] def\n} def\n/cfontCB {\n dup /fontsize exch def /Typewriter-Bold exch sf\n /vg&fontstyles [{cfontC} {cfontCB} {cfontCI} {cfontCBI}] def\n} def\n/cfontCI {\n dup /fontsize exch def /Typewriter-Italic exch sf\n /vg&fontstyles [{cfontC} {cfontCB} {cfontCI} {cfontCBI}] def\n} def\n/cfontCBI {\n dup /fontsize exch def /Typewriter-BoldItalic exch sf\n /vg&fontstyles [{cfontC} {cfontCB} {cfontCI} {cfontCBI}] def\n} def\n\n% Darken or lighten the current color.\n/darken {0.7 exch exp 3 copy\n         q 4 -1 roll vg&C\n         currentrgbcolor 3 {4 -2 roll mul} repeat\n         3 array astore Q} def\n\n/displayColorMap\n<< /Cr   [1.00 0.00 0.00]       /Cg     [0.00 1.00 0.00]\n   /Cb   [0.00 0.00 1.00]       /Cc     [1.00 0.00 0.00 0.00]\n   /Cm   [0.00 1.00 0.00 0.00]  /Cy     [0.00 0.00 1.00 0.00]\n   /Co   [1.00 0.78 0.00]       /Cp     [1.00 0.67 0.67]\n   /Cw   [1   ]                 /Cgrl   [0.75]\n   /Cgr  [0.50]                 /Cgrd   [0.25]\n   /Ck   [0   ]\n   /CGr  [1.00 0.00 0.00]       /CGg    [0.00 1.00 0.00]\n   /CGb  [0.00 0.00 1.00]       /CGc    [1.00 0.00 0.00 0.00]\n   /CGm  [0.00 1.00 0.00 0.00]  /CGy    [0.00 0.00 1.00 0.00]\n   /CGo  [1.00 0.78 0.00]       /CGp    [1.00 0.67 0.67]\n   /CGw  [1   ]                 /CGgrl  [0.75]\n   /CGgr [0.50]                 /CGgrd  [0.25]\n   /CGk  [0   ]\n   /CIr  [1.00 0.00 0.00]       /CIg    [0.00 1.00 0.00]\n   /CIb  [0.00 0.00 1.00]       /CIc    [1.00 0.00 0.00 0.00]\n   /CIm  [0.00 1.00 0.00 0.00]  /CIy    [0.00 0.00 1.00 0.00]\n   /CIo  [1.00 0.78 0.00]       /CIp    [1.00 0.67 0.67]\n   /CIw  [1   ]                 /CIgrl  [0.75]\n   /CIgr [0.50]                 /CIgrd  [0.25]\n   /CIk  [0   ]\n>> def\n\n/printColorMap\n<< /Cr   [1.00 0.33 0.33]       /Cg     [0.33 1.00 0.33]\n   /Cb   [0.33 0.33 1.00]       /Cc     [1.00 0.00 0.00 0.00]\n   /Cm   [0.00 1.00 0.00 0.00]  /Cy     [0.00 0.00 1.00 0.00]\n   /Co   [1.00 0.78 0.00]       /Cp     [1.00 0.67 0.67]\n   /Cw   [1   ]                 /Cgrl   [0.75]\n   /Cgr  [0.50]                 /Cgrd   [0.25]\n   /Ck   [0   ]\n   /CGr  [1.00 0.33 0.33]       /CGg    [0.33 1.00 0.33]\n   /CGb  [0.33 0.33 1.00]       /CGc    [1.00 0.00 0.00 0.00]\n   /CGm  [0.00 1.00 0.00 0.00]  /CGy    [0.00 0.00 1.00 0.00]\n   /CGo  [1.00 0.78 0.00]       /CGp    [1.00 0.67 0.67]\n   /CGw  [1   ]                 /CGgrl  [0.75]\n   /CGgr [0.50]                 /CGgrd  [0.25]\n   /CGk  [0   ]\n   /CIr  [1.00 0.33 0.33]       /CIg    [0.33 1.00 0.33]\n   /CIb  [0.33 0.33 1.00]       /CIc    [1.00 0.00 0.00 0.00]\n   /CIm  [0.00 1.00 0.00 0.00]  /CIy    [0.00 0.00 1.00 0.00]\n   /CIo  [1.00 0.78 0.00]       /CIp    [1.00 0.67 0.67]\n   /CIw  [1   ]                 /CIgrl  [0.75]\n   /CIgr [0.50]                 /CIgrd  [0.25]\n   /CIk  [0   ]\n>> def\n\n/grayColorMap\n<< /Cr   [0   ]                 /Cg     [0   ]\n   /Cb   [0   ]                 /Cc     [0   ]\n   /Cm   [0   ]                 /Cy     [0   ]\n   /Co   [0   ]                 /Cp     [0   ]\n   /Cw   [0   ]                 /Cgrl   [0   ]\n   /Cgr  [0   ]                 /Cgrd   [0   ]\n   /Ck   [0   ]\n   /CGr  [0.75]                 /CGg    [1   ]\n   /CGb  [0.50]                 /CGc    [0.75]\n   /CGm  [0.50]                 /CGy    [1   ]\n   /CGo  [0.75]                 /CGp    [1   ]\n   /CGw  [0   ]                 /CGgrl  [0.25]\n   /CGgr [0.50]                 /CGgrd  [0.75]\n   /CGk  [1   ]\n   /CIr  [1   ]                 /CIg    [1   ]\n   /CIb  [1   ]                 /CIc    [1   ]\n   /CIm  [1   ]                 /CIy    [1   ]\n   /CIo  [1   ]                 /CIp    [1   ]\n   /CIw  [1   ]                 /CIgrl  [1   ]\n   /CIgr [1   ]                 /CIgrd  [1   ]\n   /CIk  [1   ]\n>> def\n\n/bwColorMap\n<< /Cr   [0   ]                 /Cg     [0   ]\n   /Cb   [0   ]                 /Cc     [0   ]\n   /Cm   [0   ]                 /Cy     [0   ]\n   /Co   [0   ]                 /Cp     [0   ]\n   /Cw   [0   ]                 /Cgrl   [0   ]\n   /Cgr  [0   ]                 /Cgrd   [0   ]\n   /Ck   [0   ]\n   /CGr  [1   ]                 /CGg    [1   ]\n   /CGb  [1   ]                 /CGc    [1   ]\n   /CGm  [1   ]                 /CGy    [1   ]\n   /CGo  [1   ]                 /CGp    [1   ]\n   /CGw  [0   ]                 /CGgrl  [1   ]\n   /CGgr [1   ]                 /CGgrd  [1   ]\n   /CGk  [1   ]\n   /CIr  [1   ]                 /CIg    [1   ]\n   /CIb  [1   ]                 /CIc    [1   ]\n   /CIm  [1   ]                 /CIy    [1   ]\n   /CIo  [1   ]                 /CIp    [1   ]\n   /CIw  [1   ]                 /CIgrl  [1   ]\n   /CIgr [1   ]                 /CIgrd  [1   ]\n   /CIk  [1   ]\n>> def\n\n%\n% The following routines handle the alignment of and printing of\n% tagged strings.\n%\n\n% Predefine the bounding box values.\n/bbllx 0 def /bblly 0 def /bburx 0 def /bbury 0 def\n\n% This routine pops the first unicode character off of a string and returns\n% the remainder of the string, the character code of first character,\n% and a "true" if the string was non-zero length.\n% <string>      popfirst <remaining string> <true>\n% <null string> popfirst <false>\n/popfirst {\n  dup length 1 gt\n    {dup 0 get /vg&fbyte exch def\n     dup 1 get /vg&cbyte exch def\n     dup length 2 sub 2 exch getinterval true}\n    {pop false} ifelse\n} def\n\n% This routine shows a single unicode character given the font and\n% character codes.\n% <font code> <char code> unicharshow --\n/unicharshow {\n  2 string\n  dup 0 5 -1 roll put\n  dup 1 4 -1 roll put\n  internalshow\n} def\n\n% This is an internal routine to alternate between determining the\n% bounding box for stringsize and showing the string for recshow.\n% <string> internalshow --\n/internalshow {show} def\n\n% This is an internal routine to alternate between determining the\n% bounding box for stringsize and stroking various ornaments.\n% <string> internalstroke --\n/internalstroke {S} def\n\n% Sets up internalshow to use the null device to determine string size.\n% -- nullinternalshow --\n/nullinternalshow {/internalshow {false charpath flattenpath\n                                  pathbbox updatebbox} def} def\n\n% Sets up internalstroke to use the null device to determine string size.\n% -- nullinternalstroke --\n/nullinternalstroke {\n /internalstroke {flattenpath pathbbox updatebbox} def} def\n\n% This routine tests to see if the character code matches the first\n% character of a string.\n% <char code> <string> testchar <char code> <true or false>\n/testchar {exch dup 3 -1 roll 0 get eq} def\n\n% Raise the text baseline for superscripts.\n% -- raise --\n/raise {\n  0 fontsize 2 div rmoveto\n  /fontsize fontsize 2 mul 3 div def\n  currentfont /FontName get fontsize sf\n} def\n\n% Un-raise the text baseline for superscripts.\n% -- unraise --\n/unraise {\n  /fontsize fontsize 1.5 mul def\n  0 fontsize 2 div neg rmoveto\n} def\n\n% Lower the text baseline for subscripts.\n% -- lower --\n/lower {\n  0 fontsize 3 div neg rmoveto\n  /fontsize fontsize 2 mul 3 div def\n  currentfont /FontName get fontsize sf\n} def\n\n% Un-lower the text baseline for subscripts.\n% -- unlower --\n/unlower {\n  /fontsize fontsize 1.5 mul def\n  0 fontsize 3 div rmoveto\n} def\n\n% Compare the top two elements on the stack and leave only the\n% larger one.\n/maxval {2 copy gt {pop} {exch pop} ifelse} def\n\n% Tokenize a string.  Do not use the usual PostScript token because\n% parentheses will not be interpreted correctly because of rescanning\n% of the string.\n/vg&token {/vg&string exch def /vg&index -1 def /vg&level 0 def\n0 2 vg&string length 2 sub {\n  dup dup 1 add exch vg&string exch get 8 bitshift vg&string 3 -1 roll get or\n  dup 16#f0fe eq {pop 1}{16#f0ff eq {-1}{0} ifelse} ifelse\n  /vg&level exch vg&level add def\n  vg&level 0 eq {/vg&index exch def exit} if pop\n} for\nvg&index 0 ge {\n  vg&string vg&index 2 add dup vg&string length exch sub getinterval\n  vg&index 2 gt {vg&string 2 vg&index 2 sub getinterval}{()} ifelse\n  true}\n{false} ifelse\n} bind def\n\n% Recursively show an unicode string.\n% <string> recshow --\n/recshow {\n  popfirst\n  {\n    % Test to see if this is a string attribute.\n    vg&fbyte 16#f0 and 16#e0 eq\n    {\n      q\n\n      % Font style.\n      currentfont dup /FontStyleBits known {/FontStyleBits get}{pop 0} ifelse\n      vg&cbyte or vg&fontstyles exch get fontsize exch exec\n\n      vg&token pop recshow currentpoint Q m recshow\n    }\n    {\n      vg&fbyte 16#F8 and 16#F0 eq {\n\n        % Superscript and/or subscript.\n        vg&cbyte 16#00 eq {\n          vg&token pop exch vg&token pop 3 -1 roll\n          q raise recshow unraise currentpoint pop Q exch\n          q lower recshow unlower currentpoint pop Q\n          maxval currentpoint exch pop m recshow } if\n\n        % Strikeout.\n        vg&cbyte 16#01 eq {\n          vg&token pop currentpoint 3 -1 roll recshow\n          q 0 J vg&underline vg&uthick w\n          currentpoint 4 -2 roll fontsize 3 div add moveto\n          fontsize 3 div add lineto internalstroke Q\n          recshow} if\n\n        % Underline.\n        vg&cbyte 16#02 eq {\n          vg&token pop currentpoint 3 -1 roll recshow\n          q 0 J vg&underline vg&uthick w\n          currentpoint 4 -2 roll vg&uoffset add moveto\n          vg&uoffset add lineto internalstroke Q\n          recshow} if\n\n        % Dashed underline.\n        vg&cbyte 16#03 eq {\n          vg&token pop currentpoint 3 -1 roll recshow\n          q 0 J [ vg&uthick 5 mul vg&uthick 2 mul] 0 d\n          vg&underline vg&uthick w\n          currentpoint 4 -2 roll vg&uoffset add moveto\n          vg&uoffset add lineto internalstroke Q\n          recshow} if\n\n        % Dotted underline.\n        vg&cbyte 16#04 eq {\n          vg&token pop currentpoint 3 -1 roll recshow\n          q 1 J [ 0 vg&uthick 3 mul] 0 d\n          vg&underline vg&uthick w\n          currentpoint 4 -2 roll vg&uoffset add moveto\n          vg&uoffset add lineto internalstroke Q\n          recshow} if\n\n        % Thick underline.\n        vg&cbyte 16#05 eq {\n          vg&token pop currentpoint 3 -1 roll recshow\n          q 0 J vg&underline vg&uthick 2 mul w\n          currentpoint 4 -2 roll vg&uoffset vg&uthick 2 div sub add moveto\n          vg&uoffset vg&uthick 2 div sub add lineto internalstroke Q\n          recshow} if\n\n        % Gray thick underline.\n        vg&cbyte 16#06 eq {\n          vg&token pop currentpoint 3 -1 roll recshow\n          q 0 J vg&underline vg&uthick 2 mul w 0.5 setgray\n          currentpoint 4 -2 roll vg&uoffset vg&uthick 2 div sub add moveto\n          vg&uoffset vg&uthick 2 div sub add lineto internalstroke Q\n          recshow} if\n\n        % Overbar.\n        vg&cbyte 16#07 eq {\n          vg&token pop dup stringsize relative 4 1 roll pop pop exch\n          3 -1 roll recshow\n          q 0 J vg&underline vg&uthick w\n          vg&uoffset neg add dup currentpoint pop exch m l internalstroke Q\n          recshow} if\n      }\n      {\n        vg&fbyte vg&cbyte unicharshow recshow\n      } ifelse\n    } ifelse\n  } if\n} def\n\n% Get the underline position and thickness from the current font.\n/vg&underline {\n\ncurrentfont dup /FontType get 0 eq {/FDepVector get 0 get} if\ndup dup /FontInfo known {\n  /FontInfo get dup\n  dup /UnderlinePosition known {\n    /UnderlinePosition get /vg&uoffset exch def\n  }\n  {\n    pop /vg&uoffset 0 def\n  } ifelse\n  dup /UnderlineThickness known {\n    /UnderlineThickness get /vg&uthick exch def\n  }\n  {\n    pop /vg&uthick 0 def\n  } ifelse\n}\n{\n  pop /vg&uoffset 0 def /vg&uthick 0 def\n} ifelse\n/FontMatrix get\ncurrentfont dup /FontType get 0 eq\n{/FontMatrix get matrix concatmatrix}{pop} ifelse\ndup 0 vg&uoffset 3 -1 roll transform /vg&uoffset exch def pop\n0 vg&uthick 3 -1 roll transform /vg&uthick exch def pop\n} def\n\n% Make a frame with the coordinates on the stack.\n% <llx> <lly> <urx> <ury> frame --\n/frame {4 copy m 3 1 roll exch l 4 -2 roll l l h} def\n\n% Resets the accumulated bounding box to a degenerate box at the\n% current point.\n% -- resetbbox --\n/resetbbox {\n  currentpoint 2 copy\n  /bbury exch def\n  /bburx exch def\n  /bblly exch def\n  /bbllx exch def\n} def\n\n% Update the accumulated bounding box.\n% <llx\'> <lly\'> <urx\'> <ury\'> updatebbox --\n/updatebbox {\n  dup bbury gt {/bbury exch def} {pop} ifelse\n  dup bburx gt {/bburx exch def} {pop} ifelse\n  dup bblly lt {/bblly exch def} {pop} ifelse\n  dup bbllx lt {/bbllx exch def} {pop} ifelse\n} def\n\n% Set the bounding box to the values on the stack.\n% <llx\'> <lly\'> <urx\'> <ury\'> updatebbox --\n/restorebbox {\n  /bbury exch def /bburx exch def /bblly exch def /bbllx exch def\n} def\n\n% Push the accumulated bounding box onto the stack.\n% -- pushbbox <llx> <lly> <urx> <ury>\n/pushbbox {bbllx bblly bburx bbury} def\n\n% Make the relative bounding box relative to the currentpoint.\n% <llx\'> <lly\'> <urx\'> <ury\'> inflate <llx> <lly> <urx> <ury>\n/inflate {\n  2 {fontsize 0.2 mul add 4 1 roll} repeat\n  2 {fontsize 0.2 mul sub 4 1 roll} repeat\n} def\n\n% Make the relative bounding box relative to the currentpoint.\n% <llx\'> <lly\'> <urx\'> <ury\'> relative <llx> <lly> <urx> <ury>\n/relative {\n  currentpoint 3 -1 roll add 3 1 roll add exch 4 2 roll\n  currentpoint 3 -1 roll add 3 1 roll add exch 4 2 roll\n} def\n\n% Returns the size of a string appropriate for recshow.\n% <string> stringsize <llx> <lly> <urx> <ury>\n/stringsize {\n  pushbbox /internalshow load /internalstroke load 7 -1 roll\n  q\n  nulldevice 0 0 m\n  nullinternalshow nullinternalstroke\n  resetbbox\n  recshow\n  /internalstroke exch def /internalshow exch def\n  pushbbox 8 -4 roll restorebbox\n  Q\n} def\n\n% Calculate values for string positioning.\n/calcval {4 copy\n  3 -1 roll sub /widy exch def sub neg /widx exch def\n  pop pop /dy exch def /dx exch def} def\n\n% Utilities to position a string.\n% First letter (U=upper, C=center, B=baseline, L=lower)\n% Second letter (L=left, C=center, R=right)\n/align [\n{calcval dx neg widy dy add neg rmoveto} % UL\n{calcval dx neg widy 2 div dy add neg rmoveto} % CL\n{calcval dx neg 0 rmoveto} % BL\n{calcval dx neg dy neg rmoveto} % LL\n{calcval widx dx add neg widy dy add neg rmoveto} % UR\n{calcval widx dx add neg widy 2 div dy add neg rmoveto} % CR\n{calcval widx dx add neg 0 rmoveto} % BR\n{calcval widx dx add neg dy neg rmoveto} % LR\n{calcval widx 2 div dx add neg widy dy add neg rmoveto} % UC\n{calcval widx 2 div dx add neg widy 2 div dy add neg rmoveto} % CC\n{calcval widx 2 div dx add neg 0 rmoveto} % BC\n{calcval widx 2 div dx add neg dy neg rmoveto} % LC\n] def\n\n/vg&str {m q 1 -1 scale dup stringsize 4 copy align 11 -1 roll get exec\n         q inflate relative frame exch exec Q recshow Q} def\n\nend /procDict exch def\n%%EndProlog\n\n%%BeginSetup\nsave\nprocDict begin\nprintColorMap begin\n595 842 setpagesize\n20 20 20 20 setmargins\n0 0 setorigin\n590 649 setsize\nfittopage\nlandscape\nimagescale\ncliptobounds\nsetbasematrix\n/Helvetica 10 sf\ndefaultGraphicsState\n%%EndSetup\n\n0.0 0.0 0.0 RG\n[ 1.0 0.0 0.0 1.0 0.0 0.0 ] defaultmatrix matrix concatmatrix setmatrix\n1.0 w\n2 J\n0 j\n10.0 M\n[ ] 0.0 d\n1.0 1.0 1.0 RG\n0.0 0.0 590.0 649.0 rf\n0.0 0.0 0.0 RG\nq\n0 0 590 649 rc\nq\n1.0 1.0 1.0 RG\n0.0 0.0 590.0 649.0 rf\n0.0 0.0 590.0 649.0 rc\n[ 1.0 0.0 0.0 1.0 390.0 288.0 ] concat\n[ 1.0 0.0 0.0 1.0 0.0 0.0 ] concat\nnewpath\n-390.0 -288.0 m\n200.0 -288.0 l\n200.0 361.0 l\n-390.0 361.0 l\n-390.0 -288.0 l\nh\nf\n0.501961 0.501961 0.501961 RG\nnewpath\n-380.0 -278.0 m\n190.0 -278.0 l\n190.0 330.0 l\n-380.0 330.0 l\n-380.0 -278.0 l\nh\nS\n[ 1.0 0.0 0.0 1.0 -350.0 80.0 ] concat\n1.0 1.0 1.0 RG\nnewpath\n0.5 0.5 m\n99.5 0.5 l\n99.5 69.5 l\n0.5 69.5 l\nh\nf\n0.0 0.0 0.0 RG\n0 J\n1.0 M\nnewpath\n0.5 0.5 m\n99.5 0.5 l\n99.5 69.5 l\n0.5 69.5 l\nh\nS\n0.501961 0.501961 0.501961 RG\n2 J\n10.0 M\n[ 1.0 0.0 0.0 1.0 1.0 1.0 ] concat\n[ 1.0 0.0 0.0 1.0 36.9714 2.0 ] concat\n0.0 0.0 0.0 RG\n0.0 11.0 moveto\nq 1 -1 scale\n/SansSerif-Bold findfont 11.0 scalefont setfont\n(\\000W\\000i\\000k\\000i) show\nQ\n[ 1.0 0.0 0.0 1.0 41.0 369.0 ] defaultmatrix matrix concatmatrix setmatrix\n[ 1.0 0.0 0.0 1.0 40.0 368.0 ] defaultmatrix matrix concatmatrix setmatrix\n[ 1.0 0.0 0.0 1.0 1.0 19.0 ] concat\n1.0 1.0 1.0 RG\nnewpath\n0.5 0.5 m\n97.5 0.5 l\n97.5 0.5 l\n0.5 0.5 l\nh\nf\n0.0 0.0 0.0 RG\n0 J\n1.0 M\nnewpath\n0.5 0.5 m\n97.5 0.5 l\n97.5 0.5 l\n0.5 0.5 l\nh\nS\n2 J\n10.0 M\n[ 1.0 0.0 0.0 1.0 40.0 368.0 ] defaultmatrix matrix concatmatrix setmatrix\n[ 1.0 0.0 0.0 1.0 1.0 20.0 ] concat\n[ 1.0 0.0 0.0 1.0 2.0 2.0 ] concat\n1.0 1.0 1.0 RG\nnewpath\nf\n0.0 0.0 0.0 RG\n0 J\n1.0 M\nnewpath\nS\n2 J\n10.0 M\n[ 1.0 0.0 0.0 1.0 41.0 388.0 ] defaultmatrix matrix concatmatrix setmatrix\n[ 1.0 0.0 0.0 1.0 40.0 368.0 ] defaultmatrix matrix concatmatrix setmatrix\n[ 1.0 0.0 0.0 1.0 1.0 44.0 ] concat\n1.0 1.0 1.0 RG\nnewpath\n0.5 0.5 m\n97.5 0.5 l\n97.5 0.5 l\n0.5 0.5 l\nh\nf\n0.0 0.0 0.0 RG\n0 J\n1.0 M\nnewpath\n0.5 0.5 m\n97.5 0.5 l\n97.5 0.5 l\n0.5 0.5 l\nh\nS\n2 J\n10.0 M\n[ 1.0 0.0 0.0 1.0 40.0 368.0 ] defaultmatrix matrix concatmatrix setmatrix\n[ 1.0 0.0 0.0 1.0 1.0 45.0 ] concat\n[ 1.0 0.0 0.0 1.0 2.0 2.0 ] concat\n1.0 1.0 1.0 RG\nnewpath\nf\n0.0 0.0 0.0 RG\n0 J\n1.0 M\nnewpath\nS\n2 J\n10.0 M\n[ 1.0 0.0 0.0 1.0 41.0 413.0 ] defaultmatrix matrix concatmatrix setmatrix\n[ 1.0 0.0 0.0 1.0 40.0 368.0 ] defaultmatrix matrix concatmatrix setmatrix\n[ 1.0 0.0 0.0 1.0 390.0 288.0 ] defaultmatrix matrix concatmatrix setmatrix\n[ 1.0 0.0 0.0 1.0 -350.0 -230.0 ] concat\n1.0 1.0 1.0 RG\nnewpath\n0.5 0.5 m\n99.5 0.5 l\n99.5 69.5 l\n0.5 69.5 l\nh\nf\n0.0 0.0 0.0 RG\n0 J\n1.0 M\nnewpath\n0.5 0.5 m\n99.5 0.5 l\n99.5 69.5 l\n0.5 69.5 l\nh\nS\n2 J\n10.0 M\n[ 1.0 0.0 0.0 1.0 1.0 1.0 ] concat\n[ 1.0 0.0 0.0 1.0 36.1174 2.0 ] concat\n0.0 11.0 moveto\nq 1 -1 scale\n/SansSerif-Bold findfont 11.0 scalefont setfont\n(\\000U\\000s\\000e\\000r) show\nQ\n[ 1.0 0.0 0.0 1.0 41.0 59.0 ] defaultmatrix matrix concatmatrix setmatrix\n[ 1.0 0.0 0.0 1.0 40.0 58.0 ] defaultmatrix matrix concatmatrix setmatrix\n[ 1.0 0.0 0.0 1.0 1.0 19.0 ] concat\n1.0 1.0 1.0 RG\nnewpath\n0.5 0.5 m\n97.5 0.5 l\n97.5 0.5 l\n0.5 0.5 l\nh\nf\n0.0 0.0 0.0 RG\n0 J\n1.0 M\nnewpath\n0.5 0.5 m\n97.5 0.5 l\n97.5 0.5 l\n0.5 0.5 l\nh\nS\n2 J\n10.0 M\n[ 1.0 0.0 0.0 1.0 40.0 58.0 ] defaultmatrix matrix concatmatrix setmatrix\n[ 1.0 0.0 0.0 1.0 1.0 20.0 ] concat\n[ 1.0 0.0 0.0 1.0 2.0 2.0 ] concat\n1.0 1.0 1.0 RG\nnewpath\nf\n0.0 0.0 0.0 RG\n0 J\n1.0 M\nnewpath\nS\n2 J\n10.0 M\n[ 1.0 0.0 0.0 1.0 41.0 78.0 ] defaultmatrix matrix concatmatrix setmatrix\n[ 1.0 0.0 0.0 1.0 40.0 58.0 ] defaultmatrix matrix concatmatrix setmatrix\n[ 1.0 0.0 0.0 1.0 1.0 44.0 ] concat\n1.0 1.0 1.0 RG\nnewpath\n0.5 0.5 m\n97.5 0.5 l\n97.5 0.5 l\n0.5 0.5 l\nh\nf\n0.0 0.0 0.0 RG\n0 J\n1.0 M\nnewpath\n0.5 0.5 m\n97.5 0.5 l\n97.5 0.5 l\n0.5 0.5 l\nh\nS\n2 J\n10.0 M\n[ 1.0 0.0 0.0 1.0 40.0 58.0 ] defaultmatrix matrix concatmatrix setmatrix\n[ 1.0 0.0 0.0 1.0 1.0 45.0 ] concat\n[ 1.0 0.0 0.0 1.0 2.0 2.0 ] concat\n1.0 1.0 1.0 RG\nnewpath\nf\n0.0 0.0 0.0 RG\n0 J\n1.0 M\nnewpath\nS\n2 J\n10.0 M\n[ 1.0 0.0 0.0 1.0 41.0 103.0 ] defaultmatrix matrix concatmatrix setmatrix\n[ 1.0 0.0 0.0 1.0 40.0 58.0 ] defaultmatrix matrix concatmatrix setmatrix\n[ 1.0 0.0 0.0 1.0 390.0 288.0 ] defaultmatrix matrix concatmatrix setmatrix\n[ 1.0 0.0 0.0 1.0 60.0 -230.0 ] concat\n1.0 1.0 1.0 RG\nnewpath\n0.5 0.5 m\n99.5 0.5 l\n99.5 69.5 l\n0.5 69.5 l\nh\nf\n0.0 0.0 0.0 RG\n0 J\n1.0 M\nnewpath\n0.5 0.5 m\n99.5 0.5 l\n99.5 69.5 l\n0.5 69.5 l\nh\nS\n2 J\n10.0 M\n[ 1.0 0.0 0.0 1.0 1.0 1.0 ] concat\n[ 1.0 0.0 0.0 1.0 3.9419 2.0 ] concat\n0.0 11.0 moveto\nq 1 -1 scale\n/SansSerif-Bold findfont 11.0 scalefont setfont\n(\\000R\\000e\\000g\\000i\\000s\\000t\\000e\\000r\\000e\\000d\\000 \\000U\\000s\\000e\\000r) show\nQ\n[ 1.0 0.0 0.0 1.0 451.0 59.0 ] defaultmatrix matrix concatmatrix setmatrix\n[ 1.0 0.0 0.0 1.0 450.0 58.0 ] defaultmatrix matrix concatmatrix setmatrix\n[ 1.0 0.0 0.0 1.0 1.0 19.0 ] concat\n1.0 1.0 1.0 RG\nnewpath\n0.5 0.5 m\n97.5 0.5 l\n97.5 0.5 l\n0.5 0.5 l\nh\nf\n0.0 0.0 0.0 RG\n0 J\n1.0 M\nnewpath\n0.5 0.5 m\n97.5 0.5 l\n97.5 0.5 l\n0.5 0.5 l\nh\nS\n2 J\n10.0 M\n[ 1.0 0.0 0.0 1.0 450.0 58.0 ] defaultmatrix matrix concatmatrix setmatrix\n[ 1.0 0.0 0.0 1.0 1.0 20.0 ] concat\n[ 1.0 0.0 0.0 1.0 2.0 2.0 ] concat\n1.0 1.0 1.0 RG\nnewpath\nf\n0.0 0.0 0.0 RG\n0 J\n1.0 M\nnewpath\nS\n2 J\n10.0 M\n[ 1.0 0.0 0.0 1.0 451.0 78.0 ] defaultmatrix matrix concatmatrix setmatrix\n[ 1.0 0.0 0.0 1.0 450.0 58.0 ] defaultmatrix matrix concatmatrix setmatrix\n[ 1.0 0.0 0.0 1.0 1.0 44.0 ] concat\n1.0 1.0 1.0 RG\nnewpath\n0.5 0.5 m\n97.5 0.5 l\n97.5 0.5 l\n0.5 0.5 l\nh\nf\n0.0 0.0 0.0 RG\n0 J\n1.0 M\nnewpath\n0.5 0.5 m\n97.5 0.5 l\n97.5 0.5 l\n0.5 0.5 l\nh\nS\n2 J\n10.0 M\n[ 1.0 0.0 0.0 1.0 450.0 58.0 ] defaultmatrix matrix concatmatrix setmatrix\n[ 1.0 0.0 0.0 1.0 1.0 45.0 ] concat\n[ 1.0 0.0 0.0 1.0 2.0 2.0 ] concat\n1.0 1.0 1.0 RG\nnewpath\nf\n0.0 0.0 0.0 RG\n0 J\n1.0 M\nnewpath\nS\n2 J\n10.0 M\n[ 1.0 0.0 0.0 1.0 451.0 103.0 ] defaultmatrix matrix concatmatrix setmatrix\n[ 1.0 0.0 0.0 1.0 450.0 58.0 ] defaultmatrix matrix concatmatrix setmatrix\n[ 1.0 0.0 0.0 1.0 390.0 288.0 ] defaultmatrix matrix concatmatrix setmatrix\n[ 1.0 0.0 0.0 1.0 -360.0 -40.0 ] concat\n0 J\n1.0 M\nnewpath\n110.0 180.0 m\n420.0 180.0 l\nS\n2 J\n10.0 M\n[ 1.0 0.0 0.0 1.0 110.0 180.0 ] concat\n0 J\n1.0 M\nnewpath\nS\n2 J\n10.0 M\n[ 1.0 0.0 0.0 1.0 30.0 248.0 ] defaultmatrix matrix concatmatrix setmatrix\n[ 1.0 0.0 0.0 1.0 420.0 180.0 ] concat\n0 J\n1.0 M\nnewpath\nS\n2 J\n10.0 M\n[ -1.0 0.0 0.0 -1.0 0.0 0.0 ] concat\n1.0 1.0 1.0 RG\nnewpath\n10.0 -5.0 m\n0.0 0.0 l\nh\n10.0 5.0 m\n0.0 0.0 l\nh\nf\n0.0 0.0 0.0 RG\nnewpath\n10.0 -5.0 m\n0.0 0.0 l\nh\n10.0 5.0 m\n0.0 0.0 l\nh\nS\n[ 1.0 0.0 0.0 1.0 450.0 428.0 ] defaultmatrix matrix concatmatrix setmatrix\n[ 1.0 0.0 0.0 1.0 -16.2917 9.5 ] concat\n0.0 11.0 moveto\nq 1 -1 scale\n/SansSerif findfont 11.0 scalefont setfont\n(\\000*) show\nQ\n[ 1.0 0.0 0.0 1.0 450.0 428.0 ] defaultmatrix matrix concatmatrix setmatrix\n[ 1.0 0.0 0.0 1.0 30.0 248.0 ] defaultmatrix matrix concatmatrix setmatrix\n[ 1.0 0.0 0.0 1.0 390.0 288.0 ] defaultmatrix matrix concatmatrix setmatrix\n[ 1.0 0.0 0.0 1.0 -400.0 -40.0 ] concat\n0 J\n1.0 M\nnewpath\n490.0 206.0 m\n490.0 270.0 l\nS\n2 J\n10.0 M\n[ 1.0 0.0 0.0 1.0 490.0 206.0 ] concat\n0 J\n1.0 M\nnewpath\nS\n2 J\n10.0 M\n[ 1.0 0.0 0.0 1.0 -12.80127 5.990381 ] concat\n0.0 11.0 moveto\nq 1 -1 scale\n/SansSerif findfont 11.0 scalefont setfont\n(\\000*) show\nQ\n[ 1.0 0.0 0.0 1.0 480.0 454.0 ] defaultmatrix matrix concatmatrix setmatrix\n[ 1.0 0.0 0.0 1.0 -10.0 248.0 ] defaultmatrix matrix concatmatrix setmatrix\n[ 1.0 0.0 0.0 1.0 490.0 270.0 ] concat\n0 J\n1.0 M\nnewpath\nS\n2 J\n10.0 M\n[ -0.0 -1.0 1.0 0.0 -0.0 0.0 ] concat\n1.0 1.0 1.0 RG\nnewpath\n10.0 -5.0 m\n0.0 0.0 l\nh\n10.0 5.0 m\n0.0 0.0 l\nh\nf\n0.0 0.0 0.0 RG\nnewpath\n10.0 -5.0 m\n0.0 0.0 l\nh\n10.0 5.0 m\n0.0 0.0 l\nh\nS\n[ 1.0 0.0 0.0 1.0 480.0 518.0 ] defaultmatrix matrix concatmatrix setmatrix\n[ 1.0 0.0 0.0 1.0 -14.80127 -18.990381 ] concat\n0.0 11.0 moveto\nq 1 -1 scale\n/SansSerif findfont 11.0 scalefont setfont\n(\\000*) show\nQ\n[ 1.0 0.0 0.0 1.0 480.0 518.0 ] defaultmatrix matrix concatmatrix setmatrix\n[ 1.0 0.0 0.0 1.0 -10.0 248.0 ] defaultmatrix matrix concatmatrix setmatrix\n[ 1.0 0.0 0.0 1.0 503.0 169.1754 ] concat\n1.0 1.0 1.0 RG\nnewpath\nf\n0.0 0.0 0.0 RG\n0 J\n1.0 M\nnewpath\nS\n2 J\n10.0 M\n[ 1.0 0.0 0.0 1.0 0.0 0.0 ] concat\n0.0 11.0 moveto\nq 1 -1 scale\n/SansSerif findfont 11.0 scalefont setfont\n(\\000s\\000o\\000u\\000r\\000c\\000e) show\nQ\n[ 1.0 0.0 0.0 1.0 493.0 417.1754 ] defaultmatrix matrix concatmatrix setmatrix\n[ 1.0 0.0 0.0 1.0 -10.0 248.0 ] defaultmatrix matrix concatmatrix setmatrix\n[ 1.0 0.0 0.0 1.0 390.0 288.0 ] defaultmatrix matrix concatmatrix setmatrix\n[ 1.0 0.0 0.0 1.0 -360.0 -30.0 ] concat\n0 J\n1.0 M\nnewpath\n420.0 -190.0 m\n110.0 -190.0 l\nS\n2 J\n10.0 M\n[ 1.0 0.0 0.0 1.0 110.0 -190.0 ] concat\n1.0 1.0 1.0 RG\nnewpath\n12.0 -6.0 m\n0.0 0.0 l\n12.0 6.0 l\nh\nf\n0.0 0.0 0.0 RG\nnewpath\n12.0 -6.0 m\n0.0 0.0 l\n12.0 6.0 l\nh\nS\n[ 1.0 0.0 0.0 1.0 30.0 258.0 ] defaultmatrix matrix concatmatrix setmatrix\n[ 1.0 0.0 0.0 1.0 390.0 288.0 ] defaultmatrix matrix concatmatrix setmatrix\n[ 1.0 0.0 0.0 1.0 -30.0 0.0 ] concat\n0 J\n1.0 M\n[ 5.0 10.0 ] 0.0 d\nnewpath\n140.0 80.0 m\n140.0 -160.0 l\nS\n2 J\n10.0 M\n[ ] 0.0 d\n[ 0.0 1.0 -1.0 -0.0 140.0 -160.0 ] concat\nnewpath\n10.0 5.0 m\n0.0 0.0 l\n10.0 -5.0 l\nS\n[ 1.0 0.0 0.0 1.0 360.0 288.0 ] defaultmatrix matrix concatmatrix setmatrix\n[ 1.0 0.0 0.0 1.0 390.0 288.0 ] defaultmatrix matrix concatmatrix setmatrix\n[ 1.0 0.0 0.0 1.0 -400.0 -40.0 ] concat\n0 J\n1.0 M\nnewpath\n530.0 270.0 m\n530.0 206.0 l\nS\n2 J\n10.0 M\n[ 1.0 0.0 0.0 1.0 530.0 270.0 ] concat\n0 J\n1.0 M\nnewpath\nS\n2 J\n10.0 M\n[ 1.0 0.0 0.0 1.0 -11.8013 -16.9904 ] concat\n0.0 11.0 moveto\nq 1 -1 scale\n/SansSerif findfont 11.0 scalefont setfont\n(\\000*) show\nQ\n[ 1.0 0.0 0.0 1.0 520.0 518.0 ] defaultmatrix matrix concatmatrix setmatrix\n[ 1.0 0.0 0.0 1.0 -10.0 248.0 ] defaultmatrix matrix concatmatrix setmatrix\n[ 1.0 0.0 0.0 1.0 530.0 206.0 ] concat\n0 J\n1.0 M\nnewpath\nS\n2 J\n10.0 M\n[ 0.0 1.0 -1.0 -0.0 0.0 -0.0 ] concat\n1.0 1.0 1.0 RG\nnewpath\n10.0 -5.0 m\n0.0 0.0 l\nh\n10.0 5.0 m\n0.0 0.0 l\nh\nf\n0.0 0.0 0.0 RG\nnewpath\n10.0 -5.0 m\n0.0 0.0 l\nh\n10.0 5.0 m\n0.0 0.0 l\nh\nS\n[ 1.0 0.0 0.0 1.0 520.0 454.0 ] defaultmatrix matrix concatmatrix setmatrix\n[ 1.0 0.0 0.0 1.0 -24.7178 12.9904 ] concat\n0.0 11.0 moveto\nq 1 -1 scale\n/SansSerif findfont 11.0 scalefont setfont\n(\\0001\\000.\\000.\\000*) show\nQ\n[ 1.0 0.0 0.0 1.0 520.0 454.0 ] defaultmatrix matrix concatmatrix setmatrix\n[ 1.0 0.0 0.0 1.0 -10.0 248.0 ] defaultmatrix matrix concatmatrix setmatrix\n[ 1.0 0.0 0.0 1.0 469.2681 315.5322 ] concat\n1.0 1.0 1.0 RG\nnewpath\nf\n0.0 0.0 0.0 RG\n0 J\n1.0 M\nnewpath\nS\n2 J\n10.0 M\n[ 1.0 0.0 0.0 1.0 0.0 0.0 ] concat\n0.0 11.0 moveto\nq 1 -1 scale\n/SansSerif findfont 11.0 scalefont setfont\n(\\000d\\000e\\000s\\000t\\000i\\000n\\000a\\000t\\000i\\000o\\000n) show\nQ\n[ 1.0 0.0 0.0 1.0 459.2681 563.5322 ] defaultmatrix matrix concatmatrix setmatrix\n[ 1.0 0.0 0.0 1.0 -10.0 248.0 ] defaultmatrix matrix concatmatrix setmatrix\n[ 1.0 0.0 0.0 1.0 390.0 288.0 ] defaultmatrix matrix concatmatrix setmatrix\n[ 1.0 0.0 0.0 1.0 0.0 0.0 ] concat\n0 J\n1.0 M\nnewpath\n-310.0 -160.0 m\n-310.0 80.0 l\nS\n2 J\n10.0 M\n[ 1.0 0.0 0.0 1.0 -310.0 -160.0 ] concat\n0 J\n1.0 M\nnewpath\nS\n2 J\n10.0 M\n[ 1.0 0.0 0.0 1.0 4.272 4.9904 ] concat\n0.0 11.0 moveto\nq 1 -1 scale\n/SansSerif findfont 11.0 scalefont setfont\n(\\000*) show\nQ\n[ 1.0 0.0 0.0 1.0 80.0 128.0 ] defaultmatrix matrix concatmatrix setmatrix\n[ 1.0 0.0 0.0 1.0 390.0 288.0 ] defaultmatrix matrix concatmatrix setmatrix\n[ 1.0 0.0 0.0 1.0 -310.0 80.0 ] concat\n0 J\n1.0 M\nnewpath\nS\n2 J\n10.0 M\n[ -0.0 -1.0 1.0 0.0 -0.0 0.0 ] concat\n1.0 1.0 1.0 RG\nnewpath\n10.0 -5.0 m\n0.0 0.0 l\nh\n10.0 5.0 m\n0.0 0.0 l\nh\nf\n0.0 0.0 0.0 RG\nnewpath\n10.0 -5.0 m\n0.0 0.0 l\nh\n10.0 5.0 m\n0.0 0.0 l\nh\nS\n[ 1.0 0.0 0.0 1.0 80.0 368.0 ] defaultmatrix matrix concatmatrix setmatrix\n[ 1.0 0.0 0.0 1.0 390.0 288.0 ] defaultmatrix matrix concatmatrix setmatrix\n[ 1.0 0.0 0.0 1.0 390.0 288.0 ] defaultmatrix matrix concatmatrix setmatrix\n[ 1.0 0.0 0.0 1.0 -70.0 -190.0 ] concat\n1.0 1.0 1.0 RG\nnewpath\n0.5 0.5 m\n104.0757 0.5 l\n104.0757 69.5 l\n0.5 69.5 l\nh\nf\n0.0 0.0 0.0 RG\n0 J\n1.0 M\nnewpath\n0.5 0.5 m\n104.0757 0.5 l\n104.0757 69.5 l\n0.5 69.5 l\nh\nS\n2 J\n10.0 M\n[ 1.0 0.0 0.0 1.0 1.0 1.0 ] concat\n[ 1.0 0.0 0.0 1.0 2.0 2.0 ] concat\n0.0 11.0 moveto\nq 1 -1 scale\n/SansSerif-Bold findfont 11.0 scalefont setfont\n(\\000S\\000o\\000t\\000w\\000a\\000r\\000e\\000 \\000E\\000n\\000g\\000i\\000n\\000e\\000e\\000r) show\nQ\n[ 1.0 0.0 0.0 1.0 321.0 99.0 ] defaultmatrix matrix concatmatrix setmatrix\n[ 1.0 0.0 0.0 1.0 320.0 98.0 ] defaultmatrix matrix concatmatrix setmatrix\n[ 1.0 0.0 0.0 1.0 1.0 19.0 ] concat\n1.0 1.0 1.0 RG\nnewpath\n0.5 0.5 m\n102.075683 0.5 l\n102.075683 0.5 l\n0.5 0.5 l\nh\nf\n0.0 0.0 0.0 RG\n0 J\n1.0 M\nnewpath\n0.5 0.5 m\n102.075683 0.5 l\n102.075683 0.5 l\n0.5 0.5 l\nh\nS\n2 J\n10.0 M\n[ 1.0 0.0 0.0 1.0 320.0 98.0 ] defaultmatrix matrix concatmatrix setmatrix\n[ 1.0 0.0 0.0 1.0 1.0 20.0 ] concat\n[ 1.0 0.0 0.0 1.0 2.0 2.0 ] concat\n1.0 1.0 1.0 RG\nnewpath\nf\n0.0 0.0 0.0 RG\n0 J\n1.0 M\nnewpath\nS\n2 J\n10.0 M\n[ 1.0 0.0 0.0 1.0 321.0 118.0 ] defaultmatrix matrix concatmatrix setmatrix\n[ 1.0 0.0 0.0 1.0 320.0 98.0 ] defaultmatrix matrix concatmatrix setmatrix\n[ 1.0 0.0 0.0 1.0 1.0 44.0 ] concat\n1.0 1.0 1.0 RG\nnewpath\n0.5 0.5 m\n102.075683 0.5 l\n102.075683 0.5 l\n0.5 0.5 l\nh\nf\n0.0 0.0 0.0 RG\n0 J\n1.0 M\nnewpath\n0.5 0.5 m\n102.075683 0.5 l\n102.075683 0.5 l\n0.5 0.5 l\nh\nS\n2 J\n10.0 M\n[ 1.0 0.0 0.0 1.0 320.0 98.0 ] defaultmatrix matrix concatmatrix setmatrix\n[ 1.0 0.0 0.0 1.0 1.0 45.0 ] concat\n[ 1.0 0.0 0.0 1.0 2.0 2.0 ] concat\n1.0 1.0 1.0 RG\nnewpath\nf\n0.0 0.0 0.0 RG\n0 J\n1.0 M\nnewpath\nS\n2 J\n10.0 M\n[ 1.0 0.0 0.0 1.0 321.0 143.0 ] defaultmatrix matrix concatmatrix setmatrix\n[ 1.0 0.0 0.0 1.0 320.0 98.0 ] defaultmatrix matrix concatmatrix setmatrix\n[ 1.0 0.0 0.0 1.0 390.0 288.0 ] defaultmatrix matrix concatmatrix setmatrix\n[ 1.0 0.0 0.0 1.0 -230.0 40.0 ] concat\n1.0 1.0 1.0 RG\nnewpath\n0.5 0.5 m\n99.5 0.5 l\n99.5 69.5 l\n0.5 69.5 l\nh\nf\n0.0 0.0 0.0 RG\n0 J\n1.0 M\nnewpath\n0.5 0.5 m\n99.5 0.5 l\n99.5 69.5 l\n0.5 69.5 l\nh\nS\n2 J\n10.0 M\n[ 1.0 0.0 0.0 1.0 1.0 1.0 ] concat\n[ 1.0 0.0 0.0 1.0 29.4036 2.0 ] concat\n0.0 11.0 moveto\nq 1 -1 scale\n/SansSerif-Bold findfont 11.0 scalefont setfont\n(\\000P\\000r\\000o\\000j\\000e\\000c\\000t) show\nQ\n[ 1.0 0.0 0.0 1.0 161.0 329.0 ] defaultmatrix matrix concatmatrix setmatrix\n[ 1.0 0.0 0.0 1.0 160.0 328.0 ] defaultmatrix matrix concatmatrix setmatrix\n[ 1.0 0.0 0.0 1.0 1.0 19.0 ] concat\n1.0 1.0 1.0 RG\nnewpath\n0.5 0.5 m\n97.5 0.5 l\n97.5 0.5 l\n0.5 0.5 l\nh\nf\n0.0 0.0 0.0 RG\n0 J\n1.0 M\nnewpath\n0.5 0.5 m\n97.5 0.5 l\n97.5 0.5 l\n0.5 0.5 l\nh\nS\n2 J\n10.0 M\n[ 1.0 0.0 0.0 1.0 160.0 328.0 ] defaultmatrix matrix concatmatrix setmatrix\n[ 1.0 0.0 0.0 1.0 1.0 20.0 ] concat\n[ 1.0 0.0 0.0 1.0 2.0 2.0 ] concat\n1.0 1.0 1.0 RG\nnewpath\nf\n0.0 0.0 0.0 RG\n0 J\n1.0 M\nnewpath\nS\n2 J\n10.0 M\n[ 1.0 0.0 0.0 1.0 161.0 348.0 ] defaultmatrix matrix concatmatrix setmatrix\n[ 1.0 0.0 0.0 1.0 160.0 328.0 ] defaultmatrix matrix concatmatrix setmatrix\n[ 1.0 0.0 0.0 1.0 1.0 44.0 ] concat\n1.0 1.0 1.0 RG\nnewpath\n0.5 0.5 m\n97.5 0.5 l\n97.5 0.5 l\n0.5 0.5 l\nh\nf\n0.0 0.0 0.0 RG\n0 J\n1.0 M\nnewpath\n0.5 0.5 m\n97.5 0.5 l\n97.5 0.5 l\n0.5 0.5 l\nh\nS\n2 J\n10.0 M\n[ 1.0 0.0 0.0 1.0 160.0 328.0 ] defaultmatrix matrix concatmatrix setmatrix\n[ 1.0 0.0 0.0 1.0 1.0 45.0 ] concat\n[ 1.0 0.0 0.0 1.0 2.0 2.0 ] concat\n1.0 1.0 1.0 RG\nnewpath\nf\n0.0 0.0 0.0 RG\n0 J\n1.0 M\nnewpath\nS\n2 J\n10.0 M\n[ 1.0 0.0 0.0 1.0 161.0 373.0 ] defaultmatrix matrix concatmatrix setmatrix\n[ 1.0 0.0 0.0 1.0 160.0 328.0 ] defaultmatrix matrix concatmatrix setmatrix\n[ 1.0 0.0 0.0 1.0 390.0 288.0 ] defaultmatrix matrix concatmatrix setmatrix\n[ 1.0 0.0 0.0 1.0 -230.0 -190.0 ] concat\n1.0 1.0 1.0 RG\nnewpath\n0.5 0.5 m\n99.5 0.5 l\n99.5 69.5 l\n0.5 69.5 l\nh\nf\n0.0 0.0 0.0 RG\n0 J\n1.0 M\nnewpath\n0.5 0.5 m\n99.5 0.5 l\n99.5 69.5 l\n0.5 69.5 l\nh\nS\n2 J\n10.0 M\n[ 1.0 0.0 0.0 1.0 1.0 1.0 ] concat\n[ 1.0 0.0 0.0 1.0 15.4119 2.0 ] concat\n0.0 11.0 moveto\nq 1 -1 scale\n/SansSerif-Bold findfont 11.0 scalefont setfont\n(\\000S\\000t\\000a\\000k\\000e\\000h\\000o\\000l\\000d\\000e\\000r) show\nQ\n[ 1.0 0.0 0.0 1.0 161.0 99.0 ] defaultmatrix matrix concatmatrix setmatrix\n[ 1.0 0.0 0.0 1.0 160.0 98.0 ] defaultmatrix matrix concatmatrix setmatrix\n[ 1.0 0.0 0.0 1.0 1.0 19.0 ] concat\n1.0 1.0 1.0 RG\nnewpath\n0.5 0.5 m\n97.5 0.5 l\n97.5 0.5 l\n0.5 0.5 l\nh\nf\n0.0 0.0 0.0 RG\n0 J\n1.0 M\nnewpath\n0.5 0.5 m\n97.5 0.5 l\n97.5 0.5 l\n0.5 0.5 l\nh\nS\n2 J\n10.0 M\n[ 1.0 0.0 0.0 1.0 160.0 98.0 ] defaultmatrix matrix concatmatrix setmatrix\n[ 1.0 0.0 0.0 1.0 1.0 20.0 ] concat\n[ 1.0 0.0 0.0 1.0 2.0 2.0 ] concat\n1.0 1.0 1.0 RG\nnewpath\nf\n0.0 0.0 0.0 RG\n0 J\n1.0 M\nnewpath\nS\n2 J\n10.0 M\n[ 1.0 0.0 0.0 1.0 161.0 118.0 ] defaultmatrix matrix concatmatrix setmatrix\n[ 1.0 0.0 0.0 1.0 160.0 98.0 ] defaultmatrix matrix concatmatrix setmatrix\n[ 1.0 0.0 0.0 1.0 1.0 44.0 ] concat\n1.0 1.0 1.0 RG\nnewpath\n0.5 0.5 m\n97.5 0.5 l\n97.5 0.5 l\n0.5 0.5 l\nh\nf\n0.0 0.0 0.0 RG\n0 J\n1.0 M\nnewpath\n0.5 0.5 m\n97.5 0.5 l\n97.5 0.5 l\n0.5 0.5 l\nh\nS\n2 J\n10.0 M\n[ 1.0 0.0 0.0 1.0 160.0 98.0 ] defaultmatrix matrix concatmatrix setmatrix\n[ 1.0 0.0 0.0 1.0 1.0 45.0 ] concat\n[ 1.0 0.0 0.0 1.0 2.0 2.0 ] concat\n1.0 1.0 1.0 RG\nnewpath\nf\n0.0 0.0 0.0 RG\n0 J\n1.0 M\nnewpath\nS\n2 J\n10.0 M\n[ 1.0 0.0 0.0 1.0 161.0 143.0 ] defaultmatrix matrix concatmatrix setmatrix\n[ 1.0 0.0 0.0 1.0 160.0 98.0 ] defaultmatrix matrix concatmatrix setmatrix\n[ 1.0 0.0 0.0 1.0 390.0 288.0 ] defaultmatrix matrix concatmatrix setmatrix\n[ 1.0 0.0 0.0 1.0 -150.0 -80.0 ] concat\n1.0 1.0 1.0 RG\nnewpath\n0.5 0.5 m\n99.5 0.5 l\n99.5 69.5 l\n0.5 69.5 l\nh\nf\n0.0 0.0 0.0 RG\n0 J\n1.0 M\nnewpath\n0.5 0.5 m\n99.5 0.5 l\n99.5 69.5 l\n0.5 69.5 l\nh\nS\n2 J\n10.0 M\n[ 1.0 0.0 0.0 1.0 1.0 1.0 ] concat\n[ 1.0 0.0 0.0 1.0 31.8394 2.0 ] concat\n0.0 11.0 moveto\nq 1 -1 scale\n/SansSerif-BoldItalic findfont 11.0 scalefont setfont\n(\\000M\\000o\\000d\\000e\\000l) show\nQ\n[ 1.0 0.0 0.0 1.0 241.0 209.0 ] defaultmatrix matrix concatmatrix setmatrix\n[ 1.0 0.0 0.0 1.0 240.0 208.0 ] defaultmatrix matrix concatmatrix setmatrix\n[ 1.0 0.0 0.0 1.0 1.0 19.0 ] concat\n1.0 1.0 1.0 RG\nnewpath\n0.5 0.5 m\n97.5 0.5 l\n97.5 0.5 l\n0.5 0.5 l\nh\nf\n0.0 0.0 0.0 RG\n0 J\n1.0 M\nnewpath\n0.5 0.5 m\n97.5 0.5 l\n97.5 0.5 l\n0.5 0.5 l\nh\nS\n2 J\n10.0 M\n[ 1.0 0.0 0.0 1.0 240.0 208.0 ] defaultmatrix matrix concatmatrix setmatrix\n[ 1.0 0.0 0.0 1.0 1.0 20.0 ] concat\n[ 1.0 0.0 0.0 1.0 2.0 2.0 ] concat\n1.0 1.0 1.0 RG\nnewpath\nf\n0.0 0.0 0.0 RG\n0 J\n1.0 M\nnewpath\nS\n2 J\n10.0 M\n[ 1.0 0.0 0.0 1.0 241.0 228.0 ] defaultmatrix matrix concatmatrix setmatrix\n[ 1.0 0.0 0.0 1.0 240.0 208.0 ] defaultmatrix matrix concatmatrix setmatrix\n[ 1.0 0.0 0.0 1.0 1.0 44.0 ] concat\n1.0 1.0 1.0 RG\nnewpath\n0.5 0.5 m\n97.5 0.5 l\n97.5 0.5 l\n0.5 0.5 l\nh\nf\n0.0 0.0 0.0 RG\n0 J\n1.0 M\nnewpath\n0.5 0.5 m\n97.5 0.5 l\n97.5 0.5 l\n0.5 0.5 l\nh\nS\n2 J\n10.0 M\n[ 1.0 0.0 0.0 1.0 240.0 208.0 ] defaultmatrix matrix concatmatrix setmatrix\n[ 1.0 0.0 0.0 1.0 1.0 45.0 ] concat\n[ 1.0 0.0 0.0 1.0 2.0 2.0 ] concat\n1.0 1.0 1.0 RG\nnewpath\nf\n0.0 0.0 0.0 RG\n0 J\n1.0 M\nnewpath\nS\n2 J\n10.0 M\n[ 1.0 0.0 0.0 1.0 241.0 253.0 ] defaultmatrix matrix concatmatrix setmatrix\n[ 1.0 0.0 0.0 1.0 240.0 208.0 ] defaultmatrix matrix concatmatrix setmatrix\n[ 1.0 0.0 0.0 1.0 390.0 288.0 ] defaultmatrix matrix concatmatrix setmatrix\n[ 1.0 0.0 0.0 1.0 -70.0 40.0 ] concat\n1.0 1.0 1.0 RG\nnewpath\n0.5 0.5 m\n99.5 0.5 l\n99.5 69.5 l\n0.5 69.5 l\nh\nf\n0.0 0.0 0.0 RG\n0 J\n1.0 M\nnewpath\n0.5 0.5 m\n99.5 0.5 l\n99.5 69.5 l\n0.5 69.5 l\nh\nS\n2 J\n10.0 M\n[ 1.0 0.0 0.0 1.0 1.0 1.0 ] concat\n[ 1.0 0.0 0.0 1.0 7.3149 2.0 ] concat\n0.0 11.0 moveto\nq 1 -1 scale\n/SansSerif-BoldItalic findfont 11.0 scalefont setfont\n(\\000M\\000o\\000d\\000e\\000l\\000 \\000E\\000l\\000e\\000m\\000e\\000n\\000t) show\nQ\n[ 1.0 0.0 0.0 1.0 321.0 329.0 ] defaultmatrix matrix concatmatrix setmatrix\n[ 1.0 0.0 0.0 1.0 320.0 328.0 ] defaultmatrix matrix concatmatrix setmatrix\n[ 1.0 0.0 0.0 1.0 1.0 19.0 ] concat\n1.0 1.0 1.0 RG\nnewpath\n0.5 0.5 m\n97.5 0.5 l\n97.5 0.5 l\n0.5 0.5 l\nh\nf\n0.0 0.0 0.0 RG\n0 J\n1.0 M\nnewpath\n0.5 0.5 m\n97.5 0.5 l\n97.5 0.5 l\n0.5 0.5 l\nh\nS\n2 J\n10.0 M\n[ 1.0 0.0 0.0 1.0 320.0 328.0 ] defaultmatrix matrix concatmatrix setmatrix\n[ 1.0 0.0 0.0 1.0 1.0 20.0 ] concat\n[ 1.0 0.0 0.0 1.0 2.0 2.0 ] concat\n1.0 1.0 1.0 RG\nnewpath\nf\n0.0 0.0 0.0 RG\n0 J\n1.0 M\nnewpath\nS\n2 J\n10.0 M\n[ 1.0 0.0 0.0 1.0 321.0 348.0 ] defaultmatrix matrix concatmatrix setmatrix\n[ 1.0 0.0 0.0 1.0 320.0 328.0 ] defaultmatrix matrix concatmatrix setmatrix\n[ 1.0 0.0 0.0 1.0 1.0 44.0 ] concat\n1.0 1.0 1.0 RG\nnewpath\n0.5 0.5 m\n97.5 0.5 l\n97.5 0.5 l\n0.5 0.5 l\nh\nf\n0.0 0.0 0.0 RG\n0 J\n1.0 M\nnewpath\n0.5 0.5 m\n97.5 0.5 l\n97.5 0.5 l\n0.5 0.5 l\nh\nS\n2 J\n10.0 M\n[ 1.0 0.0 0.0 1.0 320.0 328.0 ] defaultmatrix matrix concatmatrix setmatrix\n[ 1.0 0.0 0.0 1.0 1.0 45.0 ] concat\n[ 1.0 0.0 0.0 1.0 2.0 2.0 ] concat\n1.0 1.0 1.0 RG\nnewpath\nf\n0.0 0.0 0.0 RG\n0 J\n1.0 M\nnewpath\nS\n2 J\n10.0 M\n[ 1.0 0.0 0.0 1.0 321.0 373.0 ] defaultmatrix matrix concatmatrix setmatrix\n[ 1.0 0.0 0.0 1.0 320.0 328.0 ] defaultmatrix matrix concatmatrix setmatrix\n[ 1.0 0.0 0.0 1.0 390.0 288.0 ] defaultmatrix matrix concatmatrix setmatrix\n[ 1.0 0.0 0.0 1.0 -630.0 -90.0 ] concat\n0 J\n1.0 M\nnewpath\n490.0 130.0 m\n490.0 80.0 l\nS\n2 J\n10.0 M\n[ 1.0 0.0 0.0 1.0 490.0 130.0 ] concat\n0 J\n1.0 M\nnewpath\nS\n2 J\n10.0 M\n[ 1.0 0.0 0.0 1.0 7.7891 -9.5441 ] concat\n0.0 11.0 moveto\nq 1 -1 scale\n/SansSerif findfont 11.0 scalefont setfont\n(\\000*) show\nQ\n[ 1.0 0.0 0.0 1.0 250.0 328.0 ] defaultmatrix matrix concatmatrix setmatrix\n[ 1.0 0.0 0.0 1.0 -240.0 198.0 ] defaultmatrix matrix concatmatrix setmatrix\n[ 1.0 0.0 0.0 1.0 490.0 80.0 ] concat\n0 J\n1.0 M\nnewpath\nS\n2 J\n10.0 M\n[ -0.0 1.0 -1.0 -0.0 0.0 0.0 ] concat\n1.0 1.0 1.0 RG\nnewpath\n10.0 -5.0 m\n0.0 0.0 l\nh\n10.0 5.0 m\n0.0 0.0 l\nh\nf\n0.0 0.0 0.0 RG\nnewpath\n10.0 -5.0 m\n0.0 0.0 l\nh\n10.0 5.0 m\n0.0 0.0 l\nh\nS\n[ 1.0 0.0 0.0 1.0 250.0 278.0 ] defaultmatrix matrix concatmatrix setmatrix\n[ 1.0 0.0 0.0 1.0 -31.4967 2.9392 ] concat\n0.0 11.0 moveto\nq 1 -1 scale\n/SansSerif findfont 11.0 scalefont setfont\n(\\0001\\000.\\000.\\000*) show\nQ\n[ 1.0 0.0 0.0 1.0 250.0 278.0 ] defaultmatrix matrix concatmatrix setmatrix\n[ 1.0 0.0 0.0 1.0 -240.0 198.0 ] defaultmatrix matrix concatmatrix setmatrix\n[ 1.0 0.0 0.0 1.0 390.0 288.0 ] defaultmatrix matrix concatmatrix setmatrix\n[ 1.0 0.0 0.0 1.0 -30.0 30.0 ] concat\n0 J\n1.0 M\nnewpath\n-40.0 -200.0 m\n-100.0 -200.0 l\nS\n2 J\n10.0 M\n[ 1.0 0.0 0.0 1.0 -100.0 -200.0 ] concat\n1.0 1.0 1.0 RG\nnewpath\n12.0 -6.0 m\n0.0 0.0 l\n12.0 6.0 l\nh\nf\n0.0 0.0 0.0 RG\nnewpath\n12.0 -6.0 m\n0.0 0.0 l\n12.0 6.0 l\nh\nS\n[ 1.0 0.0 0.0 1.0 360.0 318.0 ] defaultmatrix matrix concatmatrix setmatrix\n[ 1.0 0.0 0.0 1.0 390.0 288.0 ] defaultmatrix matrix concatmatrix setmatrix\n[ 1.0 0.0 0.0 1.0 -590.0 70.0 ] concat\n0 J\n1.0 M\nnewpath\n530.0 -80.0 m\n530.0 -30.0 l\nS\n2 J\n10.0 M\n[ 1.0 0.0 0.0 1.0 530.0 -80.0 ] concat\n0 J\n1.0 M\nnewpath\nS\n2 J\n10.0 M\n[ 0.0 1.0 -1.0 0.0 0.0 -0.0 ] concat\nnewpath\n0.0 0.0 m\n10.0 -5.0 l\n20.0 0.0 l\n10.0 5.0 l\nh\nf\nnewpath\n0.0 0.0 m\n10.0 -5.0 l\n20.0 0.0 l\n10.0 5.0 l\nh\nS\n[ 1.0 0.0 0.0 1.0 330.0 278.0 ] defaultmatrix matrix concatmatrix setmatrix\n[ 1.0 0.0 0.0 1.0 -200.0 358.0 ] defaultmatrix matrix concatmatrix setmatrix\n[ 1.0 0.0 0.0 1.0 530.0 -30.0 ] concat\n0 J\n1.0 M\nnewpath\nS\n2 J\n10.0 M\n[ 1.0 0.0 0.0 1.0 5.0873 -14.8385 ] concat\n0.0 11.0 moveto\nq 1 -1 scale\n/SansSerif findfont 11.0 scalefont setfont\n(\\000*) show\nQ\n[ 1.0 0.0 0.0 1.0 330.0 328.0 ] defaultmatrix matrix concatmatrix setmatrix\n[ 1.0 0.0 0.0 1.0 -200.0 358.0 ] defaultmatrix matrix concatmatrix setmatrix\n[ 1.0 0.0 0.0 1.0 390.0 288.0 ] defaultmatrix matrix concatmatrix setmatrix\n[ 1.0 0.0 0.0 1.0 -30.0 30.0 ] concat\n0 J\n1.0 M\nnewpath\n-180.0 -150.0 m\n-180.0 10.0 l\nS\n2 J\n10.0 M\n[ 1.0 0.0 0.0 1.0 -180.0 -150.0 ] concat\n0 J\n1.0 M\nnewpath\nS\n2 J\n10.0 M\n[ 1.0 0.0 0.0 1.0 -14.8013 5.9904 ] concat\n0.0 11.0 moveto\nq 1 -1 scale\n/SansSerif findfont 11.0 scalefont setfont\n(\\000*) show\nQ\n[ 1.0 0.0 0.0 1.0 180.0 168.0 ] defaultmatrix matrix concatmatrix setmatrix\n[ 1.0 0.0 0.0 1.0 360.0 318.0 ] defaultmatrix matrix concatmatrix setmatrix\n[ 1.0 0.0 0.0 1.0 -180.0 10.0 ] concat\n0 J\n1.0 M\nnewpath\nS\n2 J\n10.0 M\n[ -0.0 -1.0 1.0 -0.0 0.0 0.0 ] concat\n1.0 1.0 1.0 RG\nnewpath\n10.0 -5.0 m\n0.0 0.0 l\nh\n10.0 5.0 m\n0.0 0.0 l\nh\nf\n0.0 0.0 0.0 RG\nnewpath\n10.0 -5.0 m\n0.0 0.0 l\nh\n10.0 5.0 m\n0.0 0.0 l\nh\nS\n[ 1.0 0.0 0.0 1.0 180.0 328.0 ] defaultmatrix matrix concatmatrix setmatrix\n[ 1.0 0.0 0.0 1.0 -26.7178 -26.9904 ] concat\n0.0 11.0 moveto\nq 1 -1 scale\n/SansSerif findfont 11.0 scalefont setfont\n(\\0001\\000.\\000.\\000*) show\nQ\n[ 1.0 0.0 0.0 1.0 180.0 328.0 ] defaultmatrix matrix concatmatrix setmatrix\n[ 1.0 0.0 0.0 1.0 360.0 318.0 ] defaultmatrix matrix concatmatrix setmatrix\n[ 1.0 0.0 0.0 1.0 390.0 288.0 ] defaultmatrix matrix concatmatrix setmatrix\n[ 1.0 0.0 0.0 1.0 0.0 0.0 ] concat\n0 J\n1.0 M\nnewpath\n-250.0 -173.0 m\n-230.0 -173.0 l\nS\n2 J\n10.0 M\n[ 1.0 0.0 0.0 1.0 -250.0 -173.0 ] concat\n0 J\n1.0 M\nnewpath\nS\n2 J\n10.0 M\n[ 1.0 0.0 0.0 1.0 390.0 288.0 ] defaultmatrix matrix concatmatrix setmatrix\n[ 1.0 0.0 0.0 1.0 -230.0 -173.0 ] concat\n0 J\n1.0 M\nnewpath\nS\n2 J\n10.0 M\n[ 1.0 0.0 0.0 1.0 390.0 288.0 ] defaultmatrix matrix concatmatrix setmatrix\n[ 1.0 0.0 0.0 1.0 390.0 288.0 ] defaultmatrix matrix concatmatrix setmatrix\n[ 1.0 0.0 0.0 1.0 0.0 0.0 ] concat\n0 J\n1.0 M\nnewpath\n34.5757 -169.0 m\n60.0 -169.0 l\nS\n2 J\n10.0 M\n[ 1.0 0.0 0.0 1.0 34.5757 -169.0 ] concat\n0 J\n1.0 M\nnewpath\nS\n2 J\n10.0 M\n[ 1.0 0.0 0.0 1.0 390.0 288.0 ] defaultmatrix matrix concatmatrix setmatrix\n[ 1.0 0.0 0.0 1.0 60.0 -169.0 ] concat\n0 J\n1.0 M\nnewpath\nS\n2 J\n10.0 M\n[ 1.0 0.0 0.0 1.0 390.0 288.0 ] defaultmatrix matrix concatmatrix setmatrix\n[ 1.0 0.0 0.0 1.0 390.0 288.0 ] defaultmatrix matrix concatmatrix setmatrix\n[ 1.0 0.0 0.0 1.0 0.0 0.0 ] concat\n0 J\n1.0 M\nnewpath\n30.0 86.0 m\n60.0 86.0 l\nS\n2 J\n10.0 M\n[ 1.0 0.0 0.0 1.0 30.0 86.0 ] concat\n0 J\n1.0 M\nnewpath\nS\n2 J\n10.0 M\n[ 1.0 0.0 0.0 1.0 390.0 288.0 ] defaultmatrix matrix concatmatrix setmatrix\n[ 1.0 0.0 0.0 1.0 60.0 86.0 ] concat\n0 J\n1.0 M\nnewpath\nS\n2 J\n10.0 M\n[ 1.0 0.0 0.0 1.0 390.0 288.0 ] defaultmatrix matrix concatmatrix setmatrix\n[ 1.0 0.0 0.0 1.0 390.0 288.0 ] defaultmatrix matrix concatmatrix setmatrix\n[ 1.0 0.0 0.0 1.0 0.0 0.0 ] concat\n0 J\n1.0 M\nnewpath\n-230.0 90.0 m\n-250.0 90.0 l\nS\n2 J\n10.0 M\n[ 1.0 0.0 0.0 1.0 -230.0 90.0 ] concat\n0 J\n1.0 M\nnewpath\nS\n2 J\n10.0 M\n[ 1.0 0.0 0.0 1.0 390.0 288.0 ] defaultmatrix matrix concatmatrix setmatrix\n[ 1.0 0.0 0.0 1.0 -250.0 90.0 ] concat\n0 J\n1.0 M\nnewpath\nS\n2 J\n10.0 M\n[ 1.0 0.0 0.0 1.0 390.0 288.0 ] defaultmatrix matrix concatmatrix setmatrix\n[ 1.0 0.0 0.0 1.0 390.0 288.0 ] defaultmatrix matrix concatmatrix setmatrix\n[ 1.0 0.0 0.0 1.0 0.0 0.0 ] concat\n0 J\n1.0 M\nnewpath\n-100.0 -10.0 m\n-100.0 250.0 l\n60.0 250.0 l\nS\n2 J\n10.0 M\n[ 1.0 0.0 0.0 1.0 -100.0 -10.0 ] concat\n0 J\n1.0 M\nnewpath\nS\n2 J\n10.0 M\n[ 1.0 0.0 0.0 1.0 390.0 288.0 ] defaultmatrix matrix concatmatrix setmatrix\n[ 1.0 0.0 0.0 1.0 60.0 250.0 ] concat\n0 J\n1.0 M\nnewpath\nS\n2 J\n10.0 M\n[ 1.0 0.0 0.0 1.0 390.0 288.0 ] defaultmatrix matrix concatmatrix setmatrix\n[ 1.0 0.0 0.0 1.0 390.0 288.0 ] defaultmatrix matrix concatmatrix setmatrix\n[ 1.0 0.0 0.0 1.0 0.0 0.0 ] concat\n0 J\n1.0 M\n[ 5.0 10.0 ] 0.0 d\nnewpath\n0.0 40.0 m\n0.0 -120.0 l\nS\n2 J\n10.0 M\n[ ] 0.0 d\n[ 0.0 1.0 -1.0 -0.0 0.0 -120.0 ] concat\nnewpath\n10.0 5.0 m\n0.0 0.0 l\n10.0 -5.0 l\nS\n[ 1.0 0.0 0.0 1.0 390.0 288.0 ] defaultmatrix matrix concatmatrix setmatrix\n[ 1.0 0.0 0.0 1.0 390.0 288.0 ] defaultmatrix matrix concatmatrix setmatrix\n[ 1.0 0.0 0.0 1.0 -380.0 -278.0 ] concat\n1.0 1.0 1.0 RG\nnewpath\n320.3882 0.5 m\n320.3882 9.5 l\n312.3882 17.5 l\n0.5 17.5 l\n0.5 0.5 l\nh\nf\n0.0 0.0 0.0 RG\n0 J\n1.0 M\nnewpath\n320.3882 0.5 m\n320.3882 9.5 l\n312.3882 17.5 l\n0.5 17.5 l\n0.5 0.5 l\nh\nS\n2 J\n10.0 M\n[ 1.0 0.0 0.0 1.0 4.0 2.0 ] concat\n0.0 11.0 moveto\nq 1 -1 scale\n/SansSerif findfont 11.0 scalefont setfont\n(\\000B\\000u\\000s\\000i\\000n\\000e\\000s\\000s\\000 \\000-\\000 \\000H\\000y\\000p\\000e\\000r\\000d\\000o\\000c\\000u\\000m\\000e\\000n\\000t\\000 \\000a\\000n\\000d\\000 \\000S\\000o\\000f\\000t\\000w\\000a\\000r\\000e\\000 \\000P\\000r\\000o\\000j\\000e\\000c\\000t\\000 \\000M\\000a\\000p\\000p\\000i\\000n\\000g) show\nQ\n[ 1.0 0.0 0.0 1.0 10.0 10.0 ] defaultmatrix matrix concatmatrix setmatrix\n[ 1.0 0.0 0.0 1.0 390.0 288.0 ] defaultmatrix matrix concatmatrix setmatrix\n[ 1.0 0.0 0.0 1.0 60.0 230.0 ] concat\n1.0 1.0 1.0 RG\nnewpath\n0.5 0.5 m\n99.5 0.5 l\n99.5 69.5 l\n0.5 69.5 l\nh\nf\n0.0 0.0 0.0 RG\n0 J\n1.0 M\nnewpath\n0.5 0.5 m\n99.5 0.5 l\n99.5 69.5 l\n0.5 69.5 l\nh\nS\n2 J\n10.0 M\n[ 1.0 0.0 0.0 1.0 1.0 1.0 ] concat\n[ 1.0 0.0 0.0 1.0 36.9204 2.0 ] concat\n0.0 11.0 moveto\nq 1 -1 scale\n/SansSerif-Bold findfont 11.0 scalefont setfont\n(\\000L\\000i\\000n\\000k) show\nQ\n[ 1.0 0.0 0.0 1.0 451.0 519.0 ] defaultmatrix matrix concatmatrix setmatrix\n[ 1.0 0.0 0.0 1.0 450.0 518.0 ] defaultmatrix matrix concatmatrix setmatrix\n[ 1.0 0.0 0.0 1.0 1.0 19.0 ] concat\n1.0 1.0 1.0 RG\nnewpath\n0.5 0.5 m\n97.5 0.5 l\n97.5 0.5 l\n0.5 0.5 l\nh\nf\n0.0 0.0 0.0 RG\n0 J\n1.0 M\nnewpath\n0.5 0.5 m\n97.5 0.5 l\n97.5 0.5 l\n0.5 0.5 l\nh\nS\n2 J\n10.0 M\n[ 1.0 0.0 0.0 1.0 450.0 518.0 ] defaultmatrix matrix concatmatrix setmatrix\n[ 1.0 0.0 0.0 1.0 1.0 20.0 ] concat\n[ 1.0 0.0 0.0 1.0 2.0 2.0 ] concat\n1.0 1.0 1.0 RG\nnewpath\nf\n0.0 0.0 0.0 RG\n0 J\n1.0 M\nnewpath\nS\n2 J\n10.0 M\n[ 1.0 0.0 0.0 1.0 451.0 538.0 ] defaultmatrix matrix concatmatrix setmatrix\n[ 1.0 0.0 0.0 1.0 450.0 518.0 ] defaultmatrix matrix concatmatrix setmatrix\n[ 1.0 0.0 0.0 1.0 1.0 44.0 ] concat\n1.0 1.0 1.0 RG\nnewpath\n0.5 0.5 m\n97.5 0.5 l\n97.5 0.5 l\n0.5 0.5 l\nh\nf\n0.0 0.0 0.0 RG\n0 J\n1.0 M\nnewpath\n0.5 0.5 m\n97.5 0.5 l\n97.5 0.5 l\n0.5 0.5 l\nh\nS\n2 J\n10.0 M\n[ 1.0 0.0 0.0 1.0 450.0 518.0 ] defaultmatrix matrix concatmatrix setmatrix\n[ 1.0 0.0 0.0 1.0 1.0 45.0 ] concat\n[ 1.0 0.0 0.0 1.0 2.0 2.0 ] concat\n1.0 1.0 1.0 RG\nnewpath\nf\n0.0 0.0 0.0 RG\n0 J\n1.0 M\nnewpath\nS\n2 J\n10.0 M\n[ 1.0 0.0 0.0 1.0 451.0 563.0 ] defaultmatrix matrix concatmatrix setmatrix\n[ 1.0 0.0 0.0 1.0 450.0 518.0 ] defaultmatrix matrix concatmatrix setmatrix\n[ 1.0 0.0 0.0 1.0 390.0 288.0 ] defaultmatrix matrix concatmatrix setmatrix\n[ 1.0 0.0 0.0 1.0 60.0 80.0 ] concat\n1.0 1.0 1.0 RG\nnewpath\n0.5 0.5 m\n99.5 0.5 l\n99.5 85.5 l\n0.5 85.5 l\nh\nf\n0.0 0.0 0.0 RG\n0 J\n1.0 M\nnewpath\n0.5 0.5 m\n99.5 0.5 l\n99.5 85.5 l\n0.5 85.5 l\nh\nS\n2 J\n10.0 M\n[ 1.0 0.0 0.0 1.0 1.0 1.0 ] concat\n[ 1.0 0.0 0.0 1.0 23.0979 2.0 ] concat\n0.0 11.0 moveto\nq 1 -1 scale\n/SansSerif-BoldItalic findfont 11.0 scalefont setfont\n(\\000R\\000e\\000s\\000o\\000u\\000r\\000c\\000e) show\nQ\n[ 1.0 0.0 0.0 1.0 451.0 369.0 ] defaultmatrix matrix concatmatrix setmatrix\n[ 1.0 0.0 0.0 1.0 30.8967 18.0 ] concat\n1.0 1.0 1.0 RG\nnewpath\nf\n0.0 0.0 0.0 RG\n0 J\n1.0 M\nnewpath\nS\n2 J\n10.0 M\n[ 1.0 0.0 0.0 1.0 0.0 0.0 ] concat\n0.0 11.0 moveto\nq 1 -1 scale\n/SansSerif-Italic findfont 11.0 scalefont setfont\n(\\000\\050\\000f\\000r\\000o\\000m\\000 ) show\nQ\n[ 1.0 0.0 0.0 1.0 481.8967 387.0 ] defaultmatrix matrix concatmatrix setmatrix\n[ 1.0 0.0 0.0 1.0 32.6294 0.0 ] concat\n0.0 11.0 moveto\nq 1 -1 scale\n/SansSerif-Italic findfont 11.0 scalefont setfont\n(\\000\\051) show\nQ\n[ 1.0 0.0 0.0 1.0 481.8967 387.0 ] defaultmatrix matrix concatmatrix setmatrix\n[ 1.0 0.0 0.0 1.0 451.0 369.0 ] defaultmatrix matrix concatmatrix setmatrix\n[ 1.0 0.0 0.0 1.0 450.0 368.0 ] defaultmatrix matrix concatmatrix setmatrix\n[ 1.0 0.0 0.0 1.0 1.0 35.0 ] concat\n1.0 1.0 1.0 RG\nnewpath\n0.5 0.5 m\n97.5 0.5 l\n97.5 0.5 l\n0.5 0.5 l\nh\nf\n0.0 0.0 0.0 RG\n0 J\n1.0 M\nnewpath\n0.5 0.5 m\n97.5 0.5 l\n97.5 0.5 l\n0.5 0.5 l\nh\nS\n2 J\n10.0 M\n[ 1.0 0.0 0.0 1.0 450.0 368.0 ] defaultmatrix matrix concatmatrix setmatrix\n[ 1.0 0.0 0.0 1.0 1.0 36.0 ] concat\n[ 1.0 0.0 0.0 1.0 2.0 2.0 ] concat\n1.0 1.0 1.0 RG\nnewpath\nf\n0.0 0.0 0.0 RG\n0 J\n1.0 M\nnewpath\nS\n2 J\n10.0 M\n[ 1.0 0.0 0.0 1.0 451.0 404.0 ] defaultmatrix matrix concatmatrix setmatrix\n[ 1.0 0.0 0.0 1.0 450.0 368.0 ] defaultmatrix matrix concatmatrix setmatrix\n[ 1.0 0.0 0.0 1.0 1.0 60.0 ] concat\n1.0 1.0 1.0 RG\nnewpath\n0.5 0.5 m\n97.5 0.5 l\n97.5 0.5 l\n0.5 0.5 l\nh\nf\n0.0 0.0 0.0 RG\n0 J\n1.0 M\nnewpath\n0.5 0.5 m\n97.5 0.5 l\n97.5 0.5 l\n0.5 0.5 l\nh\nS\n2 J\n10.0 M\n[ 1.0 0.0 0.0 1.0 450.0 368.0 ] defaultmatrix matrix concatmatrix setmatrix\n[ 1.0 0.0 0.0 1.0 1.0 61.0 ] concat\n[ 1.0 0.0 0.0 1.0 2.0 2.0 ] concat\n1.0 1.0 1.0 RG\nnewpath\nf\n0.0 0.0 0.0 RG\n0 J\n1.0 M\nnewpath\nS\n2 J\n10.0 M\n[ 1.0 0.0 0.0 1.0 451.0 429.0 ] defaultmatrix matrix concatmatrix setmatrix\n[ 1.0 0.0 0.0 1.0 450.0 368.0 ] defaultmatrix matrix concatmatrix setmatrix\n[ 1.0 0.0 0.0 1.0 390.0 288.0 ] defaultmatrix matrix concatmatrix setmatrix\n[ 1.0 0.0 0.0 1.0 -380.0 26.0 ] concat\n[ 1.0 0.0 0.0 1.0 390.0 288.0 ] defaultmatrix matrix concatmatrix setmatrix\n[ 1.0 0.0 0.0 1.0 190.0 26.0 ] concat\n[ 1.0 0.0 0.0 1.0 390.0 288.0 ] defaultmatrix matrix concatmatrix setmatrix\n[ 1.0 0.0 0.0 1.0 -95.0 -278.0 ] concat\n[ 1.0 0.0 0.0 1.0 390.0 288.0 ] defaultmatrix matrix concatmatrix setmatrix\n[ 1.0 0.0 0.0 1.0 -95.0 330.0 ] concat\n[ 1.0 0.0 0.0 1.0 390.0 288.0 ] defaultmatrix matrix concatmatrix setmatrix\n[ 1.0 0.0 0.0 1.0 -380.0 -278.0 ] concat\n[ 1.0 0.0 0.0 1.0 390.0 288.0 ] defaultmatrix matrix concatmatrix setmatrix\n[ 1.0 0.0 0.0 1.0 190.0 -278.0 ] concat\n[ 1.0 0.0 0.0 1.0 390.0 288.0 ] defaultmatrix matrix concatmatrix setmatrix\n[ 1.0 0.0 0.0 1.0 -380.0 330.0 ] concat\n[ 1.0 0.0 0.0 1.0 390.0 288.0 ] defaultmatrix matrix concatmatrix setmatrix\n[ 1.0 0.0 0.0 1.0 190.0 330.0 ] concat\n[ 1.0 0.0 0.0 1.0 390.0 288.0 ] defaultmatrix matrix concatmatrix setmatrix\n[ 1.0 0.0 0.0 1.0 390.0 288.0 ] defaultmatrix matrix concatmatrix setmatrix\n[ 1.0 0.0 0.0 1.0 -317.638672 330.0 ] concat\n0.0 12.0 moveto\nq 1 -1 scale\n/Helvetica findfont 12.0 scalefont setfont\n(Created with Poseidon for UML Community Edition. Not for Commercial Use.) show\nQ\n[ 1.0 0.0 0.0 1.0 390.0 288.0 ] defaultmatrix matrix concatmatrix setmatrix\n[ 1.0 0.0 0.0 1.0 0.0 0.0 ] defaultmatrix matrix concatmatrix setmatrix\nnewpath\n0.0 0.0 m\n0.0 649.0 l\n590.0 649.0 l\n590.0 0.0 l\nh\nW\nQ\nend end restore showpage\n\n%%Trailer\n%%EOF\n'
p2
.I8
.S''
.